(dp1
I1
(iLUT
LUTEntry
p2
(dp3
S'node'
p4
NsS'name'
p5
S'Card'
p6
sS'typeCode'
p7
I1
sS'default'
p8
NsS'findingType'
p9
I00
sS'internal'
p10
I00
sS'declarer'
p11
S'TYPE'
p12
sS'finalVal'
p13
NsS'finalTipe'
p14
(iM3Types
M3RecordType
p15
(dp16
S'isText'
p17
I00
sS'isList'
p18
I00
sS'predef'
p19
I00
sS'isRecord'
p20
I01
sS'isDict'
p21
I00
sS'isRef'
p22
I00
sS'isType'
p23
I01
sS'isNumeric'
p24
I00
sS'fielddict'
p25
(dp26
VencodedPIN
p27
(iM3Types
Field
p28
(dp29
g8
NsS'defaultNode'
p30
(iRuleNodes
NullNode
p31
(dp32
S'slot'
p33
VconstExpr
p34
sS'kids'
p35
(lp36
sS'parent'
p37
(iRuleNodes
FieldNode
p38
(dp39
g33
Vanon
p40
sS'ass'
p41
(iRuleNodes
NullNode
p42
(dp43
g33
Vass
p44
sg35
(lp45
sg37
g38
sS'isNode'
p46
I01
sS'hasLUT'
p47
I00
sS'attributes'
p48
(lp49
sS'refid'
p50
V23
p51
sbsg35
(lp52
(iRuleNodes
IdListNode
p53
(dp54
g33
Vidlist
p55
sg35
(lp56
(iRuleNodes
IdNode
p57
(dp58
g33
Vanon
p59
sg35
(lp60
sg37
g53
sg46
I01
sS'idname'
p61
g27
sS'leadChars'
p62
V%0A  
p63
sS'startCol'
p64
V43
p65
sg47
I00
sg48
(lp66
g61
ag64
ag62
asg50
V18
p67
sbasg37
g38
sg46
I01
sg47
I00
sg48
(lp68
sg50
V17
p69
sba(iRuleNodes
TokNode
p70
(dp71
g33
Vcol
p72
sg35
(lp73
sg37
g38
sg46
I01
sg64
V54
p74
sg62
V 
sS'token'
p75
V:
sg47
I00
sg48
(lp76
g75
ag64
ag62
asg50
V19
p77
sba(iRuleNodes
TypeNameNode
p78
(dp79
g33
Vtipe
p80
sS'qualId'
p81
(iRuleNodes
QualIdNode
p82
(dp83
g33
VqualId
p84
sg35
(lp85
(iRuleNodes
IdNode
p86
(dp87
g33
Vanon
p88
sg35
(lp89
sg37
g82
sg46
I01
sg61
VINTEGER
p90
sg62
V 
sg64
V56
p91
sg47
I00
sg48
(lp92
g61
ag64
ag62
asg50
V22
p93
sbasg37
g78
sg46
I01
sg47
I00
sg48
(lp94
sg50
V21
p95
sbsg35
(lp96
g82
asg37
g38
sg46
I01
sg47
I00
sg48
(lp97
sg50
V20
p98
sbag42
ag31
asS'idlist'
p99
g53
sg37
(iRuleNodes
FieldListNode
p100
(dp101
g33
Vfields
p102
sg35
(lp103
g38
a(iRuleNodes
SepNode
p104
(dp105
g33
Vanon
p106
sg35
(lp107
sg37
g100
sg46
I01
sg64
V63
p108
sg62
V
sg75
V;
sg47
I00
sg48
(lp109
g75
ag64
ag62
asg50
V25
p110
sbasg37
(iRuleNodes
RecordNode
p111
(dp112
g33
Vtipe
p113
sg35
(lp114
(iRuleNodes
KeyWordNode
p115
(dp116
g33
Vkwr
p117
sg35
(lp118
sg37
g111
sg46
I01
sg64
V34
p119
sg62
V 
sg75
VRECORD
p120
sg47
I00
sg48
(lp121
g75
ag64
ag62
asg50
V14
p122
sbag100
a(iRuleNodes
KeyWordNode
p123
(dp124
g33
Vkwe
p125
sg35
(lp126
sg37
g111
sg46
I01
sg64
V65
p127
sg62
V%0A
p128
sg75
VEND
p129
sg47
I00
sg48
(lp130
g75
ag64
ag62
asg50
V26
p131
sbasS'kwe'
p132
g123
sg37
(iRuleNodes
TypeDeclNode
p133
(dp134
g33
Vanon
p135
sg35
(lp136
(iRuleNodes
IdNode
p137
(dp138
g33
Vid
p139
sg35
(lp140
sg37
g133
sg46
I01
sg61
VCard
p141
sg62
V 
sg64
V27
p142
sg47
I00
sg48
(lp143
g61
ag64
ag62
asg50
V11
p144
sba(iRuleNodes
OpNode
p145
(dp146
g33
Vsign
p147
sg35
(lp148
sg37
g133
sg46
I01
sg64
V32
p149
sg62
V 
sg75
V=
sg47
I00
sg48
(lp150
g75
ag64
ag62
asg50
V12
p151
sbag111
asg37
(iRuleNodes
TypeDeclsListNode
p152
(dp153
g33
VtypeList
p154
sg35
(lp155
g133
a(iRuleNodes
SepNode
p156
(dp157
g33
Vanon
p158
sg35
(lp159
sg37
g152
sg46
I01
sg64
V68
p160
sg62
V
sg75
V;
sg47
I00
sg48
(lp161
g75
ag64
ag62
asg50
V27
p162
sbasg37
(iRuleNodes
TypeDeclsNode
p163
(dp164
g33
Vanon
p165
sg35
(lp166
(iRuleNodes
KeyWordNode
p167
(dp168
g33
Vkwt
p169
sg35
(lp170
sg37
g163
sg46
I01
sg64
V22
p171
sg62
V%0A%0A
p172
sg75
VTYPE
p173
sg47
I00
sg48
(lp174
g75
ag64
ag62
asg50
V8
sbag152
asg37
(iRuleNodes
InterfaceDeclListNode
p175
(dp176
g33
Vdecls
p177
sg35
(lp178
g163
asS'lut'
p179
(iLUT
LUT
p180
(dp181
S'home'
p182
g175
sS'enclosingLUT'
p183
NsS'table'
p184
(dp185
g141
g2
ssbsg37
(iRuleNodes
InterfaceNode
p186
(dp187
g33
Vanon
p188
sS'modname'
p189
(iRuleNodes
IdNode
p190
(dp191
g33
Vmodname
p192
sg35
(lp193
sg37
g186
sg46
I01
sg61
VBankTypes
p194
sg62
V 
sg64
V10
p195
sg47
I00
sg48
(lp196
g61
ag64
ag62
asg50
V3
sbsg35
(lp197
(iRuleNodes
KeyWordNode
p198
(dp199
g33
Vkwi
p200
sg35
(lp201
sg37
g186
sg46
I01
sg64
V0
sg62
V
sg75
VINTERFACE
p202
sg47
I00
sg48
(lp203
g75
ag64
ag62
asg50
V2
sbag190
a(iRuleNodes
SepNode
p204
(dp205
g33
Vts
p206
sg35
(lp207
sg37
g186
sg46
I01
sg64
V19
p208
sg62
V
sg75
V;
sg47
I00
sg48
(lp209
g75
ag64
ag62
asg50
V4
sba(iRuleNodes
ImportListNode
p210
(dp211
g33
Vimports
p212
sg35
(lp213
sg37
g186
sg46
I01
sg47
I00
sg48
(lp214
sg50
V5
sbag175
a(iRuleNodes
KeyWordNode
p215
(dp216
g33
Vkwe
p217
sg35
(lp218
sg37
g186
sg46
I01
sg64
V71
p219
sg62
V%0A%0A
p220
sg75
VEND
p221
sg47
I00
sg48
(lp222
g75
ag64
ag62
asg50
V28
p223
sba(iRuleNodes
IdNode
p224
(dp225
g33
VendId
p226
sg35
(lp227
sg37
g186
sg46
I01
sg61
VBankTypes
p228
sg62
V 
sg64
V75
p229
sg47
I00
sg48
(lp230
g61
ag64
ag62
asg50
V29
p231
sba(iRuleNodes
SepNode
p232
(dp233
g33
Vtd
p234
sg35
(lp235
sg37
g186
sg46
I01
sg64
V84
p236
sg62
V
sg75
V.
sg47
I00
sg48
(lp237
g75
ag64
ag62
asg50
V30
p238
sbasg132
g215
sg37
NsS'kwi'
p239
g198
sS'imports'
p240
g210
sg46
I01
sS'ts'
p241
g204
sS'source'
p242
V/home/mark/m3/doc/BankTypes.i3
p243
sS'td'
p244
g232
sS'endId'
p245
g224
sg47
I01
sg48
(lp246
g242
asS'decls'
p247
g175
sg50
V1
sg179
(iLUT
LUT
p248
(dp249
g182
g186
sg183
Nsg184
(dp250
sbsbsg46
I01
sg47
I01
sg48
(lp251
sg50
V6
sbsS'typeList'
p252
g152
sg46
I01
sS'kwt'
p253
g167
sg47
I00
sg48
(lp254
sg50
V7
sbsg46
I01
sg47
I00
sg48
(lp255
sg50
V9
sbsg46
I01
sS'tipe'
p256
g111
sS'id'
p257
g137
sg47
I00
sg48
(lp258
sS'sign'
p259
g145
sg50
V10
p260
sbsg7
I1
sS'fields'
p261
g100
sg46
I01
sS'typeCreated'
p262
I01
sS'kwr'
p263
g115
sS'namedType'
p264
I01
sg47
I00
sS'phase'
p265
S'CATEGORY'
p266
sg48
(lp267
sS'type'
p268
g15
sg50
V13
p269
sbsg46
I01
sg47
I00
sg48
(lp270
sg50
V15
p271
sbsg46
I01
sg256
g78
sS'col'
p272
g70
sS'constExpr'
p273
g31
sg47
I00
sg48
(lp274
sg50
V16
p275
sbsg46
I01
sg47
I00
sg48
(lp276
sg50
V24
p277
sbsg256
(iM3Types
M3IntegerType
p278
(dp279
g17
I00
sg18
I00
sg19
I01
sg20
I00
sg21
I00
sg22
I00
sg23
I01
sg24
I01
sS'tcode'
p280
I3
sS'isSubArray'
p281
I00
sS'isBoolean'
p282
I00
sS'isError'
p283
I00
sS'isEnum'
p284
I00
sS'isProcedure'
p285
I00
sS'isTrigger'
p286
I00
sS'cBaseOffset'
p287
L-170141183460469231731687303715884105728L
sS'isSet'
p288
I00
sS'isProtocol'
p289
I00
sS'isArray'
p290
I00
sS'isTimer'
p291
I00
sS'isOpen'
p292
I00
sS'isModule'
p293
I00
sS'isPort'
p294
I00
sS'scaling'
p295
NsS'isOrdinal'
p296
I01
sS'isReal'
p297
I00
sS'isObject'
p298
I00
sS'last'
p299
L170141183460469231731687303715884105727L
sg5
S'M3IntegerBase'
p300
sS'isCapsuleBody'
p301
I00
sS'isChar'
p302
I00
sS'isNull'
p303
I00
sS'isSubrange'
p304
I00
sS'first'
p305
L-170141183460469231731687303715884105728L
sS'isCapsuleSpec'
p306
I00
sS'isInteger'
p307
I01
sbsg5
g27
sbssg280
I61
sg281
I00
sg282
I00
sg283
I00
sg284
I00
sg285
I00
sg286
I00
sg288
I00
sg289
I00
sg290
I00
sg291
I00
sg292
I00
sS'CCodeName'
p308
VBankTypes__Card
p309
sg293
I00
sg294
I00
sS'fieldnames'
p310
(lp311
g27
asg296
I00
sg297
I00
sg298
I00
sg301
I00
sg261
(lp312
g28
asg302
I00
sg303
I00
sg304
I00
sg306
I00
sg307
I00
sbsS'isIvar'
p313
I00
sS'mode'
p314
NsbsI2
(iLUT
LUTEntry
p315
(dp316
g4
Nsg5
S'Card'
p317
sg7
I2
sg8
Nsg9
I00
sg10
I00
sg11
g12
sg13
Nsg14
(iM3Types
M3RecordType
p318
(dp319
g17
I00
sg18
I00
sg19
I00
sg20
I01
sg21
I00
sg22
I00
sg23
I01
sg24
I00
sg25
(dp320
VencodedPIN
p321
(iM3Types
Field
p322
(dp323
g8
Nsg30
(iRuleNodes
NullNode
p324
(dp325
g33
VconstExpr
p326
sg35
(lp327
sg37
(iRuleNodes
FieldNode
p328
(dp329
g33
Vanon
p330
sg41
(iRuleNodes
NullNode
p331
(dp332
g33
Vass
p333
sg35
(lp334
sg37
g328
sg46
I01
sg47
I00
sg48
(lp335
sg50
V23
p336
sbsg35
(lp337
(iRuleNodes
IdListNode
p338
(dp339
g33
Vidlist
p340
sg35
(lp341
(iRuleNodes
IdNode
p342
(dp343
g33
Vanon
p344
sg35
(lp345
sg37
g338
sg46
I01
sg61
g321
sg62
V%0A  
p346
sg64
V43
p347
sg47
I00
sg48
(lp348
g61
ag64
ag62
asg50
V18
p349
sbasg37
g328
sg46
I01
sg47
I00
sg48
(lp350
sg50
V17
p351
sba(iRuleNodes
TokNode
p352
(dp353
g33
Vcol
p354
sg35
(lp355
sg37
g328
sg46
I01
sg64
V54
p356
sg62
V 
sg75
V:
sg47
I00
sg48
(lp357
g75
ag64
ag62
asg50
V19
p358
sba(iRuleNodes
TypeNameNode
p359
(dp360
g33
Vtipe
p361
sg81
(iRuleNodes
QualIdNode
p362
(dp363
g33
VqualId
p364
sg35
(lp365
(iRuleNodes
IdNode
p366
(dp367
g33
Vanon
p368
sg35
(lp369
sg37
g362
sg46
I01
sg61
VINTEGER
p370
sg62
V 
sg64
V56
p371
sg47
I00
sg48
(lp372
g61
ag64
ag62
asg50
V22
p373
sbasg37
g359
sg46
I01
sg47
I00
sg48
(lp374
sg50
V21
p375
sbsg35
(lp376
g362
asg37
g328
sg46
I01
sg47
I00
sg48
(lp377
sg50
V20
p378
sbag331
ag324
asg99
g338
sg37
(iRuleNodes
FieldListNode
p379
(dp380
g33
Vfields
p381
sg35
(lp382
g328
a(iRuleNodes
SepNode
p383
(dp384
g33
Vanon
p385
sg35
(lp386
sg37
g379
sg46
I01
sg64
V63
p387
sg62
V
sg75
V;
sg47
I00
sg48
(lp388
g75
ag64
ag62
asg50
V25
p389
sbasg37
(iRuleNodes
RecordNode
p390
(dp391
g33
Vtipe
p392
sg35
(lp393
(iRuleNodes
KeyWordNode
p394
(dp395
g33
Vkwr
p396
sg35
(lp397
sg37
g390
sg46
I01
sg64
V34
p398
sg62
V 
sg75
VRECORD
p399
sg47
I00
sg48
(lp400
g75
ag64
ag62
asg50
V14
p401
sbag379
a(iRuleNodes
KeyWordNode
p402
(dp403
g33
Vkwe
p404
sg35
(lp405
sg37
g390
sg46
I01
sg64
V65
p406
sg62
V%0A
p407
sg75
VEND
p408
sg47
I00
sg48
(lp409
g75
ag64
ag62
asg50
V26
p410
sbasg132
g402
sg37
(iRuleNodes
TypeDeclNode
p411
(dp412
g33
Vanon
p413
sg35
(lp414
(iRuleNodes
IdNode
p415
(dp416
g33
Vid
p417
sg35
(lp418
sg37
g411
sg46
I01
sg61
VCard
p419
sg62
V 
sg64
V27
p420
sg47
I00
sg48
(lp421
g61
ag64
ag62
asg50
V11
p422
sba(iRuleNodes
OpNode
p423
(dp424
g33
Vsign
p425
sg35
(lp426
sg37
g411
sg46
I01
sg64
V32
p427
sg62
V 
sg75
V=
sg47
I00
sg48
(lp428
g75
ag64
ag62
asg50
V12
p429
sbag390
asg37
(iRuleNodes
TypeDeclsListNode
p430
(dp431
g33
VtypeList
p432
sg35
(lp433
g411
a(iRuleNodes
SepNode
p434
(dp435
g33
Vanon
p436
sg35
(lp437
sg37
g430
sg46
I01
sg64
V68
p438
sg62
V
sg75
V;
sg47
I00
sg48
(lp439
g75
ag64
ag62
asg50
V27
p440
sbasg37
(iRuleNodes
TypeDeclsNode
p441
(dp442
g33
Vanon
p443
sg35
(lp444
(iRuleNodes
KeyWordNode
p445
(dp446
g33
Vkwt
p447
sg35
(lp448
sg37
g441
sg46
I01
sg64
V22
p449
sg62
V%0A%0A
p450
sg75
VTYPE
p451
sg47
I00
sg48
(lp452
g75
ag64
ag62
asg50
V8
sbag430
asg37
(iRuleNodes
InterfaceDeclListNode
p453
(dp454
g33
Vdecls
p455
sg35
(lp456
g441
asg179
(iLUT
LUT
p457
(dp458
g182
g453
sg183
Nsg184
(dp459
g419
g315
ssbsg37
(iRuleNodes
InterfaceNode
p460
(dp461
g33
Vanon
p462
sg189
(iRuleNodes
IdNode
p463
(dp464
g33
Vmodname
p465
sg35
(lp466
sg37
g460
sg46
I01
sg61
VBankTypes
p467
sg62
V 
sg64
V10
p468
sg47
I00
sg48
(lp469
g61
ag64
ag62
asg50
V3
sbsg35
(lp470
(iRuleNodes
KeyWordNode
p471
(dp472
g33
Vkwi
p473
sg35
(lp474
sg37
g460
sg46
I01
sg64
V0
sg62
V
sg75
VINTERFACE
p475
sg47
I00
sg48
(lp476
g75
ag64
ag62
asg50
V2
sbag463
a(iRuleNodes
SepNode
p477
(dp478
g33
Vts
p479
sg35
(lp480
sg37
g460
sg46
I01
sg64
V19
p481
sg62
V
sg75
V;
sg47
I00
sg48
(lp482
g75
ag64
ag62
asg50
V4
sba(iRuleNodes
ImportListNode
p483
(dp484
g33
Vimports
p485
sg35
(lp486
sg37
g460
sg46
I01
sg47
I00
sg48
(lp487
sg50
V5
sbag453
a(iRuleNodes
KeyWordNode
p488
(dp489
g33
Vkwe
p490
sg35
(lp491
sg37
g460
sg46
I01
sg64
V71
p492
sg62
V%0A%0A
p493
sg75
VEND
p494
sg47
I00
sg48
(lp495
g75
ag64
ag62
asg50
V28
p496
sba(iRuleNodes
IdNode
p497
(dp498
g33
VendId
p499
sg35
(lp500
sg37
g460
sg46
I01
sg61
VBankTypes
p501
sg62
V 
sg64
V75
p502
sg47
I00
sg48
(lp503
g61
ag64
ag62
asg50
V29
p504
sba(iRuleNodes
SepNode
p505
(dp506
g33
Vtd
p507
sg35
(lp508
sg37
g460
sg46
I01
sg64
V84
p509
sg62
V
sg75
V.
sg47
I00
sg48
(lp510
g75
ag64
ag62
asg50
V30
p511
sbasg132
g488
sg37
Nsg239
g471
sg240
g483
sg46
I01
sg241
g477
sg242
V/home/mark/m3/doc/BankTypes.i3
p512
sg244
g505
sg245
g497
sg47
I01
sg48
(lp513
g242
asg247
g453
sg50
V1
sg179
(iLUT
LUT
p514
(dp515
g182
g460
sg183
Nsg184
(dp516
sbsbsg46
I01
sg47
I01
sg48
(lp517
sg50
V6
sbsg252
g430
sg46
I01
sg253
g445
sg47
I00
sg48
(lp518
sg50
V7
sbsg46
I01
sg47
I00
sg48
(lp519
sg50
V9
sbsg46
I01
sg256
g390
sg257
g415
sg47
I00
sg48
(lp520
sg259
g423
sg50
V10
p521
sbsg7
I2
sg261
g379
sg46
I01
sg262
I01
sg263
g394
sg264
I01
sg47
I00
sg265
g266
sg48
(lp522
sg268
g318
sg50
V13
p523
sbsg46
I01
sg47
I00
sg48
(lp524
sg50
V15
p525
sbsg46
I01
sg256
g359
sg272
g352
sg273
g324
sg47
I00
sg48
(lp526
sg50
V16
p527
sbsg46
I01
sg47
I00
sg48
(lp528
sg50
V24
p529
sbsg256
g278
sg5
g321
sbssg280
I77
sg281
I00
sg282
I00
sg283
I00
sg284
I00
sg285
I00
sg286
I00
sg288
I00
sg289
I00
sg290
I00
sg291
I00
sg292
I00
sg308
VBankTypes__Card
p530
sg293
I00
sg294
I00
sg310
(lp531
g321
asg296
I00
sg297
I00
sg298
I00
sg301
I00
sg261
(lp532
g322
asg302
I00
sg303
I00
sg304
I00
sg306
I00
sg307
I00
sbsg313
I00
sg314
NsbsI3
(iLUT
LUTEntry
p533
(dp534
g4
Nsg5
S'Card'
p535
sg7
I3
sg8
Nsg9
I00
sg10
I00
sg11
g12
sg13
Nsg14
(iM3Types
M3RecordType
p536
(dp537
g17
I00
sg18
I00
sg19
I00
sg20
I01
sg21
I00
sg22
I00
sg23
I01
sg24
I00
sg25
(dp538
VencodedPIN
p539
(iM3Types
Field
p540
(dp541
g8
Nsg30
(iRuleNodes
NullNode
p542
(dp543
g33
VconstExpr
p544
sg35
(lp545
sg37
(iRuleNodes
FieldNode
p546
(dp547
g33
Vanon
p548
sg41
(iRuleNodes
NullNode
p549
(dp550
g33
Vass
p551
sg35
(lp552
sg37
g546
sg46
I01
sg47
I00
sg48
(lp553
sg50
V23
p554
sbsg35
(lp555
(iRuleNodes
IdListNode
p556
(dp557
g33
Vidlist
p558
sg35
(lp559
(iRuleNodes
IdNode
p560
(dp561
g33
Vanon
p562
sg35
(lp563
sg37
g556
sg46
I01
sg61
g539
sg62
V%0A  
p564
sg64
V43
p565
sg47
I00
sg48
(lp566
g61
ag64
ag62
asg50
V18
p567
sbasg37
g546
sg46
I01
sg47
I00
sg48
(lp568
sg50
V17
p569
sba(iRuleNodes
TokNode
p570
(dp571
g33
Vcol
p572
sg35
(lp573
sg37
g546
sg46
I01
sg64
V54
p574
sg62
V 
sg75
V:
sg47
I00
sg48
(lp575
g75
ag64
ag62
asg50
V19
p576
sba(iRuleNodes
TypeNameNode
p577
(dp578
g33
Vtipe
p579
sg81
(iRuleNodes
QualIdNode
p580
(dp581
g33
VqualId
p582
sg35
(lp583
(iRuleNodes
IdNode
p584
(dp585
g33
Vanon
p586
sg35
(lp587
sg37
g580
sg46
I01
sg61
VINTEGER
p588
sg62
V 
sg64
V56
p589
sg47
I00
sg48
(lp590
g61
ag64
ag62
asg50
V22
p591
sbasg37
g577
sg46
I01
sg47
I00
sg48
(lp592
sg50
V21
p593
sbsg35
(lp594
g580
asg37
g546
sg46
I01
sg47
I00
sg48
(lp595
sg50
V20
p596
sbag549
ag542
asg99
g556
sg37
(iRuleNodes
FieldListNode
p597
(dp598
g33
Vfields
p599
sg35
(lp600
g546
a(iRuleNodes
SepNode
p601
(dp602
g33
Vanon
p603
sg35
(lp604
sg37
g597
sg46
I01
sg64
V63
p605
sg62
V
sg75
V;
sg47
I00
sg48
(lp606
g75
ag64
ag62
asg50
V25
p607
sbasg37
(iRuleNodes
RecordNode
p608
(dp609
g33
Vtipe
p610
sg35
(lp611
(iRuleNodes
KeyWordNode
p612
(dp613
g33
Vkwr
p614
sg35
(lp615
sg37
g608
sg46
I01
sg64
V34
p616
sg62
V 
sg75
VRECORD
p617
sg47
I00
sg48
(lp618
g75
ag64
ag62
asg50
V14
p619
sbag597
a(iRuleNodes
KeyWordNode
p620
(dp621
g33
Vkwe
p622
sg35
(lp623
sg37
g608
sg46
I01
sg64
V65
p624
sg62
V%0A
p625
sg75
VEND
p626
sg47
I00
sg48
(lp627
g75
ag64
ag62
asg50
V26
p628
sbasg132
g620
sg37
(iRuleNodes
TypeDeclNode
p629
(dp630
g33
Vanon
p631
sg35
(lp632
(iRuleNodes
IdNode
p633
(dp634
g33
Vid
p635
sg35
(lp636
sg37
g629
sg46
I01
sg61
VCard
p637
sg62
V 
sg64
V27
p638
sg47
I00
sg48
(lp639
g61
ag64
ag62
asg50
V11
p640
sba(iRuleNodes
OpNode
p641
(dp642
g33
Vsign
p643
sg35
(lp644
sg37
g629
sg46
I01
sg64
V32
p645
sg62
V 
sg75
V=
sg47
I00
sg48
(lp646
g75
ag64
ag62
asg50
V12
p647
sbag608
asg37
(iRuleNodes
TypeDeclsListNode
p648
(dp649
g33
VtypeList
p650
sg35
(lp651
g629
a(iRuleNodes
SepNode
p652
(dp653
g33
Vanon
p654
sg35
(lp655
sg37
g648
sg46
I01
sg64
V68
p656
sg62
V
sg75
V;
sg47
I00
sg48
(lp657
g75
ag64
ag62
asg50
V27
p658
sbasg37
(iRuleNodes
TypeDeclsNode
p659
(dp660
g33
Vanon
p661
sg35
(lp662
(iRuleNodes
KeyWordNode
p663
(dp664
g33
Vkwt
p665
sg35
(lp666
sg37
g659
sg46
I01
sg64
V22
p667
sg62
V%0A%0A
p668
sg75
VTYPE
p669
sg47
I00
sg48
(lp670
g75
ag64
ag62
asg50
V8
sbag648
asg37
(iRuleNodes
InterfaceDeclListNode
p671
(dp672
g33
Vdecls
p673
sg35
(lp674
g659
asg179
(iLUT
LUT
p675
(dp676
g182
g671
sg183
Nsg184
(dp677
g637
g533
ssbsg37
(iRuleNodes
InterfaceNode
p678
(dp679
g33
Vanon
p680
sg189
(iRuleNodes
IdNode
p681
(dp682
g33
Vmodname
p683
sg35
(lp684
sg37
g678
sg46
I01
sg61
VBankTypes
p685
sg62
V 
sg64
V10
p686
sg47
I00
sg48
(lp687
g61
ag64
ag62
asg50
V3
sbsg35
(lp688
(iRuleNodes
KeyWordNode
p689
(dp690
g33
Vkwi
p691
sg35
(lp692
sg37
g678
sg46
I01
sg64
V0
sg62
V
sg75
VINTERFACE
p693
sg47
I00
sg48
(lp694
g75
ag64
ag62
asg50
V2
sbag681
a(iRuleNodes
SepNode
p695
(dp696
g33
Vts
p697
sg35
(lp698
sg37
g678
sg46
I01
sg64
V19
p699
sg62
V
sg75
V;
sg47
I00
sg48
(lp700
g75
ag64
ag62
asg50
V4
sba(iRuleNodes
ImportListNode
p701
(dp702
g33
Vimports
p703
sg35
(lp704
sg37
g678
sg46
I01
sg47
I00
sg48
(lp705
sg50
V5
sbag671
a(iRuleNodes
KeyWordNode
p706
(dp707
g33
Vkwe
p708
sg35
(lp709
sg37
g678
sg46
I01
sg64
V71
p710
sg62
V%0A%0A
p711
sg75
VEND
p712
sg47
I00
sg48
(lp713
g75
ag64
ag62
asg50
V28
p714
sba(iRuleNodes
IdNode
p715
(dp716
g33
VendId
p717
sg35
(lp718
sg37
g678
sg46
I01
sg61
VBankTypes
p719
sg62
V 
sg64
V75
p720
sg47
I00
sg48
(lp721
g61
ag64
ag62
asg50
V29
p722
sba(iRuleNodes
SepNode
p723
(dp724
g33
Vtd
p725
sg35
(lp726
sg37
g678
sg46
I01
sg64
V84
p727
sg62
V
sg75
V.
sg47
I00
sg48
(lp728
g75
ag64
ag62
asg50
V30
p729
sbasg132
g706
sg37
Nsg239
g689
sg240
g701
sg46
I01
sg241
g695
sg242
V/home/mark/m3/doc/BankTypes.i3
p730
sg244
g723
sg245
g715
sg47
I01
sg48
(lp731
g242
asg247
g671
sg50
V1
sg179
(iLUT
LUT
p732
(dp733
g182
g678
sg183
Nsg184
(dp734
sbsbsg46
I01
sg47
I01
sg48
(lp735
sg50
V6
sbsg252
g648
sg46
I01
sg253
g663
sg47
I00
sg48
(lp736
sg50
V7
sbsg46
I01
sg47
I00
sg48
(lp737
sg50
V9
sbsg46
I01
sg256
g608
sg257
g633
sg47
I00
sg48
(lp738
sg259
g641
sg50
V10
p739
sbsg7
I3
sg261
g597
sg46
I01
sg262
I01
sg263
g612
sg264
I01
sg47
I00
sg265
g266
sg48
(lp740
sg268
g536
sg50
V13
p741
sbsg46
I01
sg47
I00
sg48
(lp742
sg50
V15
p743
sbsg46
I01
sg256
g577
sg272
g570
sg273
g542
sg47
I00
sg48
(lp744
sg50
V16
p745
sbsg46
I01
sg47
I00
sg48
(lp746
sg50
V24
p747
sbsg256
g278
sg5
g539
sbssg280
I93
sg281
I00
sg282
I00
sg283
I00
sg284
I00
sg285
I00
sg286
I00
sg288
I00
sg289
I00
sg290
I00
sg291
I00
sg292
I00
sg308
VBankTypes__Card
p748
sg293
I00
sg294
I00
sg310
(lp749
g539
asg296
I00
sg297
I00
sg298
I00
sg301
I00
sg261
(lp750
g540
asg302
I00
sg303
I00
sg304
I00
sg306
I00
sg307
I00
sbsg313
I00
sg314
NsbsI4
(iLUT
LUTEntry
p751
(dp752
g4
Nsg5
S'Card'
p753
sg7
I4
sg8
Nsg9
I00
sg10
I00
sg11
g12
sg13
Nsg14
(iM3Types
M3RecordType
p754
(dp755
g17
I00
sg18
I00
sg19
I00
sg20
I01
sg21
I00
sg22
I00
sg23
I01
sg24
I00
sg25
(dp756
VencodedPIN
p757
(iM3Types
Field
p758
(dp759
g8
Nsg30
(iRuleNodes
NullNode
p760
(dp761
g33
VconstExpr
p762
sg35
(lp763
sg37
(iRuleNodes
FieldNode
p764
(dp765
g33
Vanon
p766
sg41
(iRuleNodes
NullNode
p767
(dp768
g33
Vass
p769
sg35
(lp770
sg37
g764
sg46
I01
sg47
I00
sg48
(lp771
sg50
V23
p772
sbsg35
(lp773
(iRuleNodes
IdListNode
p774
(dp775
g33
Vidlist
p776
sg35
(lp777
(iRuleNodes
IdNode
p778
(dp779
g33
Vanon
p780
sg35
(lp781
sg37
g774
sg46
I01
sg61
g757
sg62
V%0A  
p782
sg64
V43
p783
sg47
I00
sg48
(lp784
g61
ag64
ag62
asg50
V18
p785
sbasg37
g764
sg46
I01
sg47
I00
sg48
(lp786
sg50
V17
p787
sba(iRuleNodes
TokNode
p788
(dp789
g33
Vcol
p790
sg35
(lp791
sg37
g764
sg46
I01
sg64
V54
p792
sg62
V 
sg75
V:
sg47
I00
sg48
(lp793
g75
ag64
ag62
asg50
V19
p794
sba(iRuleNodes
TypeNameNode
p795
(dp796
g33
Vtipe
p797
sg81
(iRuleNodes
QualIdNode
p798
(dp799
g33
VqualId
p800
sg35
(lp801
(iRuleNodes
IdNode
p802
(dp803
g33
Vanon
p804
sg35
(lp805
sg37
g798
sg46
I01
sg61
VINTEGER
p806
sg62
V 
sg64
V56
p807
sg47
I00
sg48
(lp808
g61
ag64
ag62
asg50
V22
p809
sbasg37
g795
sg46
I01
sg47
I00
sg48
(lp810
sg50
V21
p811
sbsg35
(lp812
g798
asg37
g764
sg46
I01
sg47
I00
sg48
(lp813
sg50
V20
p814
sbag767
ag760
asg99
g774
sg37
(iRuleNodes
FieldListNode
p815
(dp816
g33
Vfields
p817
sg35
(lp818
g764
a(iRuleNodes
SepNode
p819
(dp820
g33
Vanon
p821
sg35
(lp822
sg37
g815
sg46
I01
sg64
V63
p823
sg62
V
sg75
V;
sg47
I00
sg48
(lp824
g75
ag64
ag62
asg50
V25
p825
sbasg37
(iRuleNodes
RecordNode
p826
(dp827
g33
Vtipe
p828
sg35
(lp829
(iRuleNodes
KeyWordNode
p830
(dp831
g33
Vkwr
p832
sg35
(lp833
sg37
g826
sg46
I01
sg64
V34
p834
sg62
V 
sg75
VRECORD
p835
sg47
I00
sg48
(lp836
g75
ag64
ag62
asg50
V14
p837
sbag815
a(iRuleNodes
KeyWordNode
p838
(dp839
g33
Vkwe
p840
sg35
(lp841
sg37
g826
sg46
I01
sg64
V65
p842
sg62
V%0A
p843
sg75
VEND
p844
sg47
I00
sg48
(lp845
g75
ag64
ag62
asg50
V26
p846
sbasg132
g838
sg37
(iRuleNodes
TypeDeclNode
p847
(dp848
g33
Vanon
p849
sg35
(lp850
(iRuleNodes
IdNode
p851
(dp852
g33
Vid
p853
sg35
(lp854
sg37
g847
sg46
I01
sg61
VCard
p855
sg62
V 
sg64
V27
p856
sg47
I00
sg48
(lp857
g61
ag64
ag62
asg50
V11
p858
sba(iRuleNodes
OpNode
p859
(dp860
g33
Vsign
p861
sg35
(lp862
sg37
g847
sg46
I01
sg64
V32
p863
sg62
V 
sg75
V=
sg47
I00
sg48
(lp864
g75
ag64
ag62
asg50
V12
p865
sbag826
asg37
(iRuleNodes
TypeDeclsListNode
p866
(dp867
g33
VtypeList
p868
sg35
(lp869
g847
a(iRuleNodes
SepNode
p870
(dp871
g33
Vanon
p872
sg35
(lp873
sg37
g866
sg46
I01
sg64
V68
p874
sg62
V
sg75
V;
sg47
I00
sg48
(lp875
g75
ag64
ag62
asg50
V27
p876
sbasg37
(iRuleNodes
TypeDeclsNode
p877
(dp878
g33
Vanon
p879
sg35
(lp880
(iRuleNodes
KeyWordNode
p881
(dp882
g33
Vkwt
p883
sg35
(lp884
sg37
g877
sg46
I01
sg64
V22
p885
sg62
V%0A%0A
p886
sg75
VTYPE
p887
sg47
I00
sg48
(lp888
g75
ag64
ag62
asg50
V8
sbag866
asg37
(iRuleNodes
InterfaceDeclListNode
p889
(dp890
g33
Vdecls
p891
sg35
(lp892
g877
asg179
(iLUT
LUT
p893
(dp894
g182
g889
sg183
Nsg184
(dp895
g855
g751
ssbsg37
(iRuleNodes
InterfaceNode
p896
(dp897
g33
Vanon
p898
sg189
(iRuleNodes
IdNode
p899
(dp900
g33
Vmodname
p901
sg35
(lp902
sg37
g896
sg46
I01
sg61
VBankTypes
p903
sg62
V 
sg64
V10
p904
sg47
I00
sg48
(lp905
g61
ag64
ag62
asg50
V3
sbsg35
(lp906
(iRuleNodes
KeyWordNode
p907
(dp908
g33
Vkwi
p909
sg35
(lp910
sg37
g896
sg46
I01
sg64
V0
sg62
V
sg75
VINTERFACE
p911
sg47
I00
sg48
(lp912
g75
ag64
ag62
asg50
V2
sbag899
a(iRuleNodes
SepNode
p913
(dp914
g33
Vts
p915
sg35
(lp916
sg37
g896
sg46
I01
sg64
V19
p917
sg62
V
sg75
V;
sg47
I00
sg48
(lp918
g75
ag64
ag62
asg50
V4
sba(iRuleNodes
ImportListNode
p919
(dp920
g33
Vimports
p921
sg35
(lp922
sg37
g896
sg46
I01
sg47
I00
sg48
(lp923
sg50
V5
sbag889
a(iRuleNodes
KeyWordNode
p924
(dp925
g33
Vkwe
p926
sg35
(lp927
sg37
g896
sg46
I01
sg64
V71
p928
sg62
V%0A%0A
p929
sg75
VEND
p930
sg47
I00
sg48
(lp931
g75
ag64
ag62
asg50
V28
p932
sba(iRuleNodes
IdNode
p933
(dp934
g33
VendId
p935
sg35
(lp936
sg37
g896
sg46
I01
sg61
VBankTypes
p937
sg62
V 
sg64
V75
p938
sg47
I00
sg48
(lp939
g61
ag64
ag62
asg50
V29
p940
sba(iRuleNodes
SepNode
p941
(dp942
g33
Vtd
p943
sg35
(lp944
sg37
g896
sg46
I01
sg64
V84
p945
sg62
V
sg75
V.
sg47
I00
sg48
(lp946
g75
ag64
ag62
asg50
V30
p947
sbasg132
g924
sg37
Nsg239
g907
sg240
g919
sg46
I01
sg241
g913
sg242
V/home/mark/m3/doc/BankTypes.i3
p948
sg244
g941
sg245
g933
sg47
I01
sg48
(lp949
g242
asg247
g889
sg50
V1
sg179
(iLUT
LUT
p950
(dp951
g182
g896
sg183
Nsg184
(dp952
sbsbsg46
I01
sg47
I01
sg48
(lp953
sg50
V6
sbsg252
g866
sg46
I01
sg253
g881
sg47
I00
sg48
(lp954
sg50
V7
sbsg46
I01
sg47
I00
sg48
(lp955
sg50
V9
sbsg46
I01
sg256
g826
sg257
g851
sg47
I00
sg48
(lp956
sg259
g859
sg50
V10
p957
sbsg7
I4
sg261
g815
sg46
I01
sg262
I01
sg263
g830
sg264
I01
sg47
I00
sg265
g266
sg48
(lp958
sg268
g754
sg50
V13
p959
sbsg46
I01
sg47
I00
sg48
(lp960
sg50
V15
p961
sbsg46
I01
sg256
g795
sg272
g788
sg273
g760
sg47
I00
sg48
(lp962
sg50
V16
p963
sbsg46
I01
sg47
I00
sg48
(lp964
sg50
V24
p965
sbsg256
g278
sg5
g757
sbssg280
I109
sg281
I00
sg282
I00
sg283
I00
sg284
I00
sg285
I00
sg286
I00
sg288
I00
sg289
I00
sg290
I00
sg291
I00
sg292
I00
sg308
VBankTypes__Card
p966
sg293
I00
sg294
I00
sg310
(lp967
g757
asg296
I00
sg297
I00
sg298
I00
sg301
I00
sg261
(lp968
g758
asg302
I00
sg303
I00
sg304
I00
sg306
I00
sg307
I00
sbsg313
I00
sg314
NsbsI5
(iLUT
LUTEntry
p969
(dp970
g4
Nsg5
VCard
p971
sg7
I5
sg8
Nsg9
I00
sg10
I00
sg11
g12
sg13
Nsg14
(iM3Types
M3RecordType
p972
(dp973
g17
I00
sg18
I00
sg19
I00
sg20
I01
sg21
I00
sg22
I00
sg23
I01
sg24
I00
sg25
(dp974
VencodedPIN
p975
(iM3Types
Field
p976
(dp977
g8
Nsg30
(iRuleNodes
NullNode
p978
(dp979
g33
VconstExpr
p980
sg35
(lp981
sg37
(iRuleNodes
FieldNode
p982
(dp983
g33
Vanon
p984
sg41
(iRuleNodes
NullNode
p985
(dp986
g33
Vass
p987
sg35
(lp988
sg37
g982
sg46
I01
sg47
I00
sg48
(lp989
sg50
V23
p990
sbsg35
(lp991
(iRuleNodes
IdListNode
p992
(dp993
g33
Vidlist
p994
sg35
(lp995
(iRuleNodes
IdNode
p996
(dp997
g33
Vanon
p998
sg35
(lp999
sg37
g992
sg46
I01
sg61
g975
sg62
V%0A  
p1000
sg64
V43
p1001
sg47
I00
sg48
(lp1002
g61
ag64
ag62
asg50
V18
p1003
sbasg37
g982
sg46
I01
sg47
I00
sg48
(lp1004
sg50
V17
p1005
sba(iRuleNodes
TokNode
p1006
(dp1007
g33
Vcol
p1008
sg35
(lp1009
sg37
g982
sg46
I01
sg64
V54
p1010
sg62
V 
sg75
V:
sg47
I00
sg48
(lp1011
g75
ag64
ag62
asg50
V19
p1012
sba(iRuleNodes
TypeNameNode
p1013
(dp1014
g33
Vtipe
p1015
sg81
(iRuleNodes
QualIdNode
p1016
(dp1017
g33
VqualId
p1018
sg35
(lp1019
(iRuleNodes
IdNode
p1020
(dp1021
g33
Vanon
p1022
sg35
(lp1023
sg37
g1016
sg46
I01
sg61
VINTEGER
p1024
sg62
V 
sg64
V56
p1025
sg47
I00
sg48
(lp1026
g61
ag64
ag62
asg50
V22
p1027
sbasg37
g1013
sg46
I01
sg47
I00
sg48
(lp1028
sg50
V21
p1029
sbsg35
(lp1030
g1016
asg37
g982
sg46
I01
sg47
I00
sg48
(lp1031
sg50
V20
p1032
sbag985
ag978
asg99
g992
sg37
(iRuleNodes
FieldListNode
p1033
(dp1034
g33
Vfields
p1035
sg35
(lp1036
g982
a(iRuleNodes
SepNode
p1037
(dp1038
g33
Vanon
p1039
sg35
(lp1040
sg37
g1033
sg46
I01
sg64
V63
p1041
sg62
V
sg75
V;
sg47
I00
sg48
(lp1042
g75
ag64
ag62
asg50
V25
p1043
sbasg37
(iRuleNodes
RecordNode
p1044
(dp1045
g33
Vtipe
p1046
sg35
(lp1047
(iRuleNodes
KeyWordNode
p1048
(dp1049
g33
Vkwr
p1050
sg35
(lp1051
sg37
g1044
sg46
I01
sg64
V34
p1052
sg62
V 
sg75
VRECORD
p1053
sg47
I00
sg48
(lp1054
g75
ag64
ag62
asg50
V14
p1055
sbag1033
a(iRuleNodes
KeyWordNode
p1056
(dp1057
g33
Vkwe
p1058
sg35
(lp1059
sg37
g1044
sg46
I01
sg64
V65
p1060
sg62
V%0A
p1061
sg75
VEND
p1062
sg47
I00
sg48
(lp1063
g75
ag64
ag62
asg50
V26
p1064
sbasg132
g1056
sg37
(iRuleNodes
TypeDeclNode
p1065
(dp1066
g33
Vanon
p1067
sg35
(lp1068
(iRuleNodes
IdNode
p1069
(dp1070
g33
Vid
p1071
sg35
(lp1072
sg37
g1065
sg46
I01
sg61
g971
sg62
V 
sg64
V27
p1073
sg47
I00
sg48
(lp1074
g61
ag64
ag62
asg50
V11
p1075
sba(iRuleNodes
OpNode
p1076
(dp1077
g33
Vsign
p1078
sg35
(lp1079
sg37
g1065
sg46
I01
sg64
V32
p1080
sg62
V 
sg75
V=
sg47
I00
sg48
(lp1081
g75
ag64
ag62
asg50
V12
p1082
sbag1044
asg37
(iRuleNodes
TypeDeclsListNode
p1083
(dp1084
g33
VtypeList
p1085
sg35
(lp1086
g1065
a(iRuleNodes
SepNode
p1087
(dp1088
g33
Vanon
p1089
sg35
(lp1090
sg37
g1083
sg46
I01
sg64
V68
p1091
sg62
V
sg75
V;
sg47
I00
sg48
(lp1092
g75
ag64
ag62
asg50
V27
p1093
sbasg37
(iRuleNodes
TypeDeclsNode
p1094
(dp1095
g33
Vanon
p1096
sg35
(lp1097
(iRuleNodes
KeyWordNode
p1098
(dp1099
g33
Vkwt
p1100
sg35
(lp1101
sg37
g1094
sg46
I01
sg64
V22
p1102
sg62
V%0A%0A
p1103
sg75
VTYPE
p1104
sg47
I00
sg48
(lp1105
g75
ag64
ag62
asg50
V8
sbag1083
asg37
(iRuleNodes
InterfaceDeclListNode
p1106
(dp1107
g33
Vdecls
p1108
sg35
(lp1109
g1094
asg179
(iLUT
LUT
p1110
(dp1111
g182
g1106
sg183
Nsg184
(dp1112
g971
g969
ssbsg37
(iRuleNodes
InterfaceNode
p1113
(dp1114
g33
Vanon
p1115
sg189
(iRuleNodes
IdNode
p1116
(dp1117
g33
Vmodname
p1118
sg35
(lp1119
sg37
g1113
sg46
I01
sg61
VBankTypes
p1120
sg62
V 
sg64
V10
p1121
sg47
I00
sg48
(lp1122
g61
ag64
ag62
asg50
V3
sbsg35
(lp1123
(iRuleNodes
KeyWordNode
p1124
(dp1125
g33
Vkwi
p1126
sg35
(lp1127
sg37
g1113
sg46
I01
sg64
V0
sg62
V
sg75
VINTERFACE
p1128
sg47
I00
sg48
(lp1129
g75
ag64
ag62
asg50
V2
sbag1116
a(iRuleNodes
SepNode
p1130
(dp1131
g33
Vts
p1132
sg35
(lp1133
sg37
g1113
sg46
I01
sg64
V19
p1134
sg62
V
sg75
V;
sg47
I00
sg48
(lp1135
g75
ag64
ag62
asg50
V4
sba(iRuleNodes
ImportListNode
p1136
(dp1137
g33
Vimports
p1138
sg35
(lp1139
sg37
g1113
sg46
I01
sg47
I00
sg48
(lp1140
sg50
V5
sbag1106
a(iRuleNodes
KeyWordNode
p1141
(dp1142
g33
Vkwe
p1143
sg35
(lp1144
sg37
g1113
sg46
I01
sg64
V71
p1145
sg62
V%0A%0A
p1146
sg75
VEND
p1147
sg47
I00
sg48
(lp1148
g75
ag64
ag62
asg50
V28
p1149
sba(iRuleNodes
IdNode
p1150
(dp1151
g33
VendId
p1152
sg35
(lp1153
sg37
g1113
sg46
I01
sg61
VBankTypes
p1154
sg62
V 
sg64
V75
p1155
sg47
I00
sg48
(lp1156
g61
ag64
ag62
asg50
V29
p1157
sba(iRuleNodes
SepNode
p1158
(dp1159
g33
Vtd
p1160
sg35
(lp1161
sg37
g1113
sg46
I01
sg64
V84
p1162
sg62
V
sg75
V.
sg47
I00
sg48
(lp1163
g75
ag64
ag62
asg50
V30
p1164
sbasg132
g1141
sg37
Nsg239
g1124
sg240
g1136
sg46
I01
sg241
g1130
sg242
V/home/mark/m3/doc/BankTypes.i3
p1165
sg244
g1158
sg245
g1150
sg47
I01
sg48
(lp1166
g242
asg247
g1106
sg50
V1
sg179
(iLUT
LUT
p1167
(dp1168
g182
g1113
sg183
Nsg184
(dp1169
sbsbsg46
I01
sg47
I01
sg48
(lp1170
sg50
V6
sbsg252
g1083
sg46
I01
sg253
g1098
sg47
I00
sg48
(lp1171
sg50
V7
sbsg46
I01
sg47
I00
sg48
(lp1172
sg50
V9
sbsg46
I01
sg256
g1044
sg257
g1069
sg47
I00
sg48
(lp1173
sg259
g1076
sg50
V10
p1174
sbsg7
I5
sg261
g1033
sg46
I01
sg262
I01
sg263
g1048
sg264
I01
sg47
I00
sg265
g266
sg48
(lp1175
sg268
g972
sg50
V13
p1176
sbsg46
I01
sg47
I00
sg48
(lp1177
sg50
V15
p1178
sbsg46
I01
sg256
g1013
sg272
g1006
sg273
g978
sg47
I00
sg48
(lp1179
sg50
V16
p1180
sbsg46
I01
sg47
I00
sg48
(lp1181
sg50
V24
p1182
sbsg256
g278
sg5
g975
sbssg280
I125
sg281
I00
sg282
I00
sg283
I00
sg284
I00
sg285
I00
sg286
I00
sg288
I00
sg289
I00
sg290
I00
sg291
I00
sg292
I00
sg308
VBankTypes__Card
p1183
sg293
I00
sg294
I00
sg310
(lp1184
g975
asg296
I00
sg297
I00
sg298
I00
sg301
I00
sg261
(lp1185
g976
asg302
I00
sg303
I00
sg304
I00
sg306
I00
sg307
I00
sbsg313
I00
sg314
NsbsI6
(iLUT
LUTEntry
p1186
(dp1187
g4
Nsg5
VCard
p1188
sg7
I6
sg8
Nsg9
I00
sg10
I00
sg11
g12
sg13
Nsg14
(iM3Types
M3RecordType
p1189
(dp1190
g17
I00
sg18
I00
sg19
I00
sg20
I01
sg21
I00
sg22
I00
sg23
I01
sg24
I00
sg25
(dp1191
VencodedPIN
p1192
(iM3Types
Field
p1193
(dp1194
g8
Nsg30
(iRuleNodes
NullNode
p1195
(dp1196
g33
VconstExpr
p1197
sg35
(lp1198
sg37
(iRuleNodes
FieldNode
p1199
(dp1200
g33
Vanon
p1201
sg41
(iRuleNodes
NullNode
p1202
(dp1203
g33
Vass
p1204
sg35
(lp1205
sg37
g1199
sg46
I01
sg47
I00
sg48
(lp1206
sg50
V23
p1207
sbsg35
(lp1208
(iRuleNodes
IdListNode
p1209
(dp1210
g33
Vidlist
p1211
sg35
(lp1212
(iRuleNodes
IdNode
p1213
(dp1214
g33
Vanon
p1215
sg35
(lp1216
sg37
g1209
sg46
I01
sg61
g1192
sg62
V%0A  
p1217
sg64
V43
p1218
sg47
I00
sg48
(lp1219
g61
ag64
ag62
asg50
V18
p1220
sbasg37
g1199
sg46
I01
sg47
I00
sg48
(lp1221
sg50
V17
p1222
sba(iRuleNodes
TokNode
p1223
(dp1224
g33
Vcol
p1225
sg35
(lp1226
sg37
g1199
sg46
I01
sg64
V54
p1227
sg62
V 
sg75
V:
sg47
I00
sg48
(lp1228
g75
ag64
ag62
asg50
V19
p1229
sba(iRuleNodes
TypeNameNode
p1230
(dp1231
g33
Vtipe
p1232
sg81
(iRuleNodes
QualIdNode
p1233
(dp1234
g33
VqualId
p1235
sg35
(lp1236
(iRuleNodes
IdNode
p1237
(dp1238
g33
Vanon
p1239
sg35
(lp1240
sg37
g1233
sg46
I01
sg61
VINTEGER
p1241
sg62
V 
sg64
V56
p1242
sg47
I00
sg48
(lp1243
g61
ag64
ag62
asg50
V22
p1244
sbasg37
g1230
sg46
I01
sg47
I00
sg48
(lp1245
sg50
V21
p1246
sbsg35
(lp1247
g1233
asg37
g1199
sg46
I01
sg47
I00
sg48
(lp1248
sg50
V20
p1249
sbag1202
ag1195
asg99
g1209
sg37
(iRuleNodes
FieldListNode
p1250
(dp1251
g33
Vfields
p1252
sg35
(lp1253
g1199
a(iRuleNodes
SepNode
p1254
(dp1255
g33
Vanon
p1256
sg35
(lp1257
sg37
g1250
sg46
I01
sg64
V63
p1258
sg62
V
sg75
V;
sg47
I00
sg48
(lp1259
g75
ag64
ag62
asg50
V25
p1260
sbasg37
(iRuleNodes
RecordNode
p1261
(dp1262
g33
Vtipe
p1263
sg35
(lp1264
(iRuleNodes
KeyWordNode
p1265
(dp1266
g33
Vkwr
p1267
sg35
(lp1268
sg37
g1261
sg46
I01
sg64
V34
p1269
sg62
V 
sg75
VRECORD
p1270
sg47
I00
sg48
(lp1271
g75
ag64
ag62
asg50
V14
p1272
sbag1250
a(iRuleNodes
KeyWordNode
p1273
(dp1274
g33
Vkwe
p1275
sg35
(lp1276
sg37
g1261
sg46
I01
sg64
V65
p1277
sg62
V%0A
p1278
sg75
VEND
p1279
sg47
I00
sg48
(lp1280
g75
ag64
ag62
asg50
V26
p1281
sbasg132
g1273
sg37
(iRuleNodes
TypeDeclNode
p1282
(dp1283
g33
Vanon
p1284
sg35
(lp1285
(iRuleNodes
IdNode
p1286
(dp1287
g33
Vid
p1288
sg35
(lp1289
sg37
g1282
sg46
I01
sg61
g1188
sg62
V 
sg64
V27
p1290
sg47
I00
sg48
(lp1291
g61
ag64
ag62
asg50
V11
p1292
sba(iRuleNodes
OpNode
p1293
(dp1294
g33
Vsign
p1295
sg35
(lp1296
sg37
g1282
sg46
I01
sg64
V32
p1297
sg62
V 
sg75
V=
sg47
I00
sg48
(lp1298
g75
ag64
ag62
asg50
V12
p1299
sbag1261
asg37
(iRuleNodes
TypeDeclsListNode
p1300
(dp1301
g33
VtypeList
p1302
sg35
(lp1303
g1282
a(iRuleNodes
SepNode
p1304
(dp1305
g33
Vanon
p1306
sg35
(lp1307
sg37
g1300
sg46
I01
sg64
V68
p1308
sg62
V
sg75
V;
sg47
I00
sg48
(lp1309
g75
ag64
ag62
asg50
V27
p1310
sbasg37
(iRuleNodes
TypeDeclsNode
p1311
(dp1312
g33
Vanon
p1313
sg35
(lp1314
(iRuleNodes
KeyWordNode
p1315
(dp1316
g33
Vkwt
p1317
sg35
(lp1318
sg37
g1311
sg46
I01
sg64
V22
p1319
sg62
V%0A%0A
p1320
sg75
VTYPE
p1321
sg47
I00
sg48
(lp1322
g75
ag64
ag62
asg50
V8
sbag1300
asg37
(iRuleNodes
InterfaceDeclListNode
p1323
(dp1324
g33
Vdecls
p1325
sg35
(lp1326
g1311
asg179
(iLUT
LUT
p1327
(dp1328
g182
g1323
sg183
Nsg184
(dp1329
g1188
g1186
ssbsg37
(iRuleNodes
InterfaceNode
p1330
(dp1331
g33
Vanon
p1332
sg189
(iRuleNodes
IdNode
p1333
(dp1334
g33
Vmodname
p1335
sg35
(lp1336
sg37
g1330
sg46
I01
sg61
VBankTypes
p1337
sg62
V 
sg64
V10
p1338
sg47
I00
sg48
(lp1339
g61
ag64
ag62
asg50
V3
sbsg35
(lp1340
(iRuleNodes
KeyWordNode
p1341
(dp1342
g33
Vkwi
p1343
sg35
(lp1344
sg37
g1330
sg46
I01
sg64
V0
sg62
V
sg75
VINTERFACE
p1345
sg47
I00
sg48
(lp1346
g75
ag64
ag62
asg50
V2
sbag1333
a(iRuleNodes
SepNode
p1347
(dp1348
g33
Vts
p1349
sg35
(lp1350
sg37
g1330
sg46
I01
sg64
V19
p1351
sg62
V
sg75
V;
sg47
I00
sg48
(lp1352
g75
ag64
ag62
asg50
V4
sba(iRuleNodes
ImportListNode
p1353
(dp1354
g33
Vimports
p1355
sg35
(lp1356
sg37
g1330
sg46
I01
sg47
I00
sg48
(lp1357
sg50
V5
sbag1323
a(iRuleNodes
KeyWordNode
p1358
(dp1359
g33
Vkwe
p1360
sg35
(lp1361
sg37
g1330
sg46
I01
sg64
V71
p1362
sg62
V%0A%0A
p1363
sg75
VEND
p1364
sg47
I00
sg48
(lp1365
g75
ag64
ag62
asg50
V28
p1366
sba(iRuleNodes
IdNode
p1367
(dp1368
g33
VendId
p1369
sg35
(lp1370
sg37
g1330
sg46
I01
sg61
VBankTypes
p1371
sg62
V 
sg64
V75
p1372
sg47
I00
sg48
(lp1373
g61
ag64
ag62
asg50
V29
p1374
sba(iRuleNodes
SepNode
p1375
(dp1376
g33
Vtd
p1377
sg35
(lp1378
sg37
g1330
sg46
I01
sg64
V84
p1379
sg62
V
sg75
V.
sg47
I00
sg48
(lp1380
g75
ag64
ag62
asg50
V30
p1381
sbasg132
g1358
sg37
Nsg239
g1341
sg240
g1353
sg46
I01
sg241
g1347
sg242
V/home/mark/m3/doc/BankTypes.i3
p1382
sg244
g1375
sg245
g1367
sg47
I01
sg48
(lp1383
g242
asg247
g1323
sg50
V1
sg179
(iLUT
LUT
p1384
(dp1385
g182
g1330
sg183
Nsg184
(dp1386
sbsbsg46
I01
sg47
I01
sg48
(lp1387
sg50
V6
sbsg252
g1300
sg46
I01
sg253
g1315
sg47
I00
sg48
(lp1388
sg50
V7
sbsg46
I01
sg47
I00
sg48
(lp1389
sg50
V9
sbsg46
I01
sg256
g1261
sg257
g1286
sg47
I00
sg48
(lp1390
sg259
g1293
sg50
V10
p1391
sbsg7
I6
sg261
g1250
sg46
I01
sg262
I01
sg263
g1265
sg264
I01
sg47
I00
sg265
g266
sg48
(lp1392
sg268
g1189
sg50
V13
p1393
sbsg46
I01
sg47
I00
sg48
(lp1394
sg50
V15
p1395
sbsg46
I01
sg256
g1230
sg272
g1223
sg273
g1195
sg47
I00
sg48
(lp1396
sg50
V16
p1397
sbsg46
I01
sg47
I00
sg48
(lp1398
sg50
V24
p1399
sbsg256
g278
sg5
g1192
sbssg280
I138
sg281
I00
sg282
I00
sg283
I00
sg284
I00
sg285
I00
sg286
I00
sg288
I00
sg289
I00
sg290
I00
sg291
I00
sg292
I00
sg308
VBankTypes__Card
p1400
sg293
I00
sg294
I00
sg310
(lp1401
g1192
asg296
I00
sg297
I00
sg298
I00
sg301
I00
sg261
(lp1402
g1193
asg302
I00
sg303
I00
sg304
I00
sg306
I00
sg307
I00
sbsg313
I00
sg314
NsbsI7
(iLUT
LUTEntry
p1403
(dp1404
g4
Nsg5
S'Card'
p1405
sg7
I7
sg8
Nsg9
I00
sg10
I00
sg11
g12
sg13
Nsg14
(iM3Types
M3RecordType
p1406
(dp1407
g17
I00
sg18
I00
sg19
I00
sg20
I01
sg21
I00
sg22
I00
sg23
I01
sg24
I00
sg25
(dp1408
S'encodedPIN'
p1409
(iM3Types
Field
p1410
(dp1411
g8
Nsg30
(iRuleNodes
NullNode
p1412
(dp1413
g33
g273
sg35
(lp1414
sg37
(iRuleNodes
FieldNode
p1415
(dp1416
g33
S'anon'
p1417
sg41
(iRuleNodes
NullNode
p1418
(dp1419
g33
g41
sg35
(lp1420
sg37
g1415
sg46
I01
sS'lineno'
p1421
I4
sg47
I00
sg48
(lp1422
sg50
I23
sbsg35
(lp1423
(iRuleNodes
IdListNode
p1424
(dp1425
g33
g99
sg35
(lp1426
(iRuleNodes
IdNode
p1427
(dp1428
g33
g1417
sg35
(lp1429
sg37
g1424
sg46
I01
sg61
g1409
sg62
S'%0A  '
p1430
sg64
I43
sg1421
I4
sg47
I00
sg48
(lp1431
g61
ag64
ag62
asg50
I18
sbasg37
g1415
sg46
I01
sg1421
I4
sg47
I00
sg48
(lp1432
sg50
I17
sba(iRuleNodes
TokNode
p1433
(dp1434
g33
g272
sg35
(lp1435
sg37
g1415
sg46
I01
sg64
I54
sg62
S' '
sg75
S':'
sg1421
I4
sg47
I00
sg48
(lp1436
g75
ag64
ag62
asg50
I19
sba(iRuleNodes
TypeNameNode
p1437
(dp1438
g33
g256
sg81
(iRuleNodes
QualIdNode
p1439
(dp1440
g33
g81
sg35
(lp1441
(iRuleNodes
IdNode
p1442
(dp1443
g33
g1417
sg35
(lp1444
sg37
g1439
sg46
I01
sg61
S'INTEGER'
p1445
sg62
S' '
sg64
I56
sg1421
I4
sg47
I00
sg48
(lp1446
g61
ag64
ag62
asg50
I22
sbasg37
g1437
sg46
I01
sg1421
I4
sg47
I00
sg48
(lp1447
sg50
I21
sbsg35
(lp1448
g1439
asg37
g1415
sg46
I01
sg1421
I4
sg47
I00
sg48
(lp1449
sg50
I20
sbag1418
ag1412
asg99
g1424
sg37
(iRuleNodes
FieldListNode
p1450
(dp1451
g33
g261
sg35
(lp1452
g1415
a(iRuleNodes
SepNode
p1453
(dp1454
g33
g1417
sg35
(lp1455
sg37
g1450
sg46
I01
sg64
I63
sg62
S''
sg75
S';'
sg1421
I4
sg47
I00
sg48
(lp1456
g75
ag64
ag62
asg50
I25
sbasg37
(iRuleNodes
RecordNode
p1457
(dp1458
g33
g256
sg35
(lp1459
(iRuleNodes
KeyWordNode
p1460
(dp1461
g33
g263
sg35
(lp1462
sg37
g1457
sg46
I01
sg64
I34
sg62
S' '
sg75
S'RECORD'
p1463
sg1421
I3
sg47
I00
sg48
(lp1464
g75
ag64
ag62
asg50
I14
sbag1450
a(iRuleNodes
KeyWordNode
p1465
(dp1466
g33
g132
sg35
(lp1467
sg37
g1457
sg46
I01
sg64
I65
sg62
S'%0A'
p1468
sg75
S'END'
p1469
sg1421
I5
sg47
I00
sg48
(lp1470
g75
ag64
ag62
asg50
I26
sbasg132
g1465
sg37
(iRuleNodes
TypeDeclNode
p1471
(dp1472
g33
g1417
sg35
(lp1473
(iRuleNodes
IdNode
p1474
(dp1475
g33
g257
sg35
(lp1476
sg37
g1471
sg46
I01
sg61
g1405
sg62
S' '
sg64
I27
sg1421
I3
sg47
I00
sg48
(lp1477
g61
ag64
ag62
asg50
I11
sba(iRuleNodes
OpNode
p1478
(dp1479
g33
g259
sg35
(lp1480
sg37
g1471
sg46
I01
sg64
I32
sg62
S' '
sg75
S'='
sg1421
I3
sg47
I00
sg48
(lp1481
g75
ag64
ag62
asg50
I12
sbag1457
asg37
(iRuleNodes
TypeDeclsListNode
p1482
(dp1483
g33
g252
sg35
(lp1484
g1471
a(iRuleNodes
SepNode
p1485
(dp1486
g33
g1417
sg35
(lp1487
sg37
g1482
sg46
I01
sg64
I68
sg62
S''
sg75
S';'
sg1421
I5
sg47
I00
sg48
(lp1488
g75
ag64
ag62
asg50
I27
sbasg37
(iRuleNodes
TypeDeclsNode
p1489
(dp1490
g33
g1417
sg35
(lp1491
(iRuleNodes
KeyWordNode
p1492
(dp1493
g33
g253
sg35
(lp1494
sg37
g1489
sg46
I01
sg64
I22
sg62
S'%0A%0A'
p1495
sg75
g12
sg1421
I3
sg47
I00
sg48
(lp1496
g75
ag64
ag62
asg50
I8
sbag1482
asg37
(iRuleNodes
InterfaceDeclListNode
p1497
(dp1498
g33
g247
sg35
(lp1499
g1489
asg179
(iLUT
LUT
p1500
(dp1501
g182
g1497
sg183
Nsg184
(dp1502
g1405
g1403
ssbsg37
(iRuleNodes
InterfaceNode
p1503
(dp1504
g33
g1417
sg189
(iRuleNodes
IdNode
p1505
(dp1506
g33
g189
sg35
(lp1507
sg37
g1503
sg46
I01
sg61
S'BankTypes'
p1508
sg62
S' '
sg64
I10
sg1421
I1
sg47
I00
sg48
(lp1509
g61
ag64
ag62
asg50
I3
sbsg35
(lp1510
(iRuleNodes
KeyWordNode
p1511
(dp1512
g33
g239
sg35
(lp1513
sg37
g1503
sg46
I01
sg64
I0
sg62
S''
sg75
S'INTERFACE'
p1514
sg1421
I1
sg47
I00
sg48
(lp1515
g75
ag64
ag62
asg50
I2
sbag1505
a(iRuleNodes
SepNode
p1516
(dp1517
g33
g241
sg35
(lp1518
sg37
g1503
sg46
I01
sg64
I19
sg62
S''
sg75
S';'
sg1421
I1
sg47
I00
sg48
(lp1519
g75
ag64
ag62
asg50
I4
sba(iRuleNodes
ImportListNode
p1520
(dp1521
g33
g240
sg35
(lp1522
sg37
g1503
sg46
I01
sg1421
I1
sg47
I00
sg48
(lp1523
sg50
I5
sbag1497
a(iRuleNodes
KeyWordNode
p1524
(dp1525
g33
g132
sg35
(lp1526
sg37
g1503
sg46
I01
sg64
I71
sg62
S'%0A%0A'
p1527
sg75
g1469
sg1421
I7
sg47
I00
sg48
(lp1528
g75
ag64
ag62
asg50
I28
sba(iRuleNodes
IdNode
p1529
(dp1530
g33
g245
sg35
(lp1531
sg37
g1503
sg46
I01
sg61
S'BankTypes'
p1532
sg62
S' '
sg64
I75
sg1421
I7
sg47
I00
sg48
(lp1533
g61
ag64
ag62
asg50
I29
sba(iRuleNodes
SepNode
p1534
(dp1535
g33
g244
sg35
(lp1536
sg37
g1503
sg46
I01
sg64
I84
sg62
S''
sg75
S'.'
sg1421
I7
sg47
I00
sg48
(lp1537
g75
ag64
ag62
asg50
I30
sbasg132
g1524
sg37
Nsg239
g1511
sg240
g1520
sg46
I01
sg241
g1516
sg242
S'/home/mark/m3/doc/BankTypes.i3'
p1538
sg244
g1534
sg245
g1529
sg47
I01
sg48
(lp1539
g242
asg247
g1497
sg179
(iLUT
LUT
p1540
(dp1541
g182
g1503
sg183
Nsg184
(dp1542
sbsg50
I1
sg1421
I1
sbsg46
I01
sg1421
I3
sg47
I01
sg48
(lp1543
sg50
I6
sbsg252
g1482
sg46
I01
sg253
g1492
sg47
I00
sg48
(lp1544
sg50
I7
sg1421
I3
sbsg46
I01
sg1421
I3
sg47
I00
sg48
(lp1545
sg50
I9
sbsg46
I01
sg256
g1457
sg257
g1474
sg1421
I3
sg47
I00
sg48
(lp1546
sg259
g1478
sg50
I10
sbsg7
I7
sg261
g1450
sg46
I01
sg262
I01
sg263
g1460
sg1421
I3
sg264
I01
sg47
I00
sg265
g266
sg48
(lp1547
sg268
g1406
sg50
I13
sbsg46
I01
sg1421
I4
sg47
I00
sg48
(lp1548
sg50
I15
sbsg46
I01
sg256
g1437
sg272
g1433
sg273
g1412
sg1421
I4
sg47
I00
sg48
(lp1549
sg50
I16
sbsg46
I01
sg1421
I4
sg47
I00
sg48
(lp1550
sg50
I24
sbsg256
g278
sg5
g1409
sbssg280
I157
sg281
I00
sg282
I00
sg283
I00
sg284
I00
sg285
I00
sg286
I00
sg288
I00
sg289
I00
sg290
I00
sg291
I00
sg292
I00
sg308
S'BankTypes__Card'
p1551
sg293
I00
sg294
I00
sg310
(lp1552
g1409
asg296
I00
sg297
I00
sg298
I00
sg301
I00
sg261
(lp1553
g1410
asg302
I00
sg303
I00
sg304
I00
sg306
I00
sg307
I00
sbsg313
I00
sg314
NsbsI8
NsI9
NsI10
NsI11
NsI12
NsI13
NsI14
(iLUT
LUTEntry
p1554
(dp1555
g4
Nsg5
S'Color'
p1556
sg7
I14
sg8
Nsg9
I00
sg10
I00
sg11
g12
sg13
Nsg14
(iM3Types
M3EnumType
p1557
(dp1558
g17
I00
sg18
I00
sg19
I00
sg20
I00
sg21
I00
sg22
I00
sg11
S'VAR'
p1559
sg23
I01
sg24
I00
sg280
I204
sg281
I00
sg282
I00
sS'orddict'
p1560
(dp1561
S'blue'
p1562
I1
sS'green'
p1563
I2
sS'red'
p1564
I0
ssg283
I00
sg284
I01
sg285
I00
sg286
I00
sg287
I0
sg288
I00
sg289
I00
sS'firstord'
p1565
I0
sg290
I00
sg291
I00
sg292
I00
sg308
S'InputTypes__Color'
p1566
sg293
I00
sg294
I00
sS'base'
p1567
g1557
sg296
I01
sg297
I00
sg298
I00
sg299
g1563
sg301
I00
sg302
I00
sg303
I00
sS'values'
p1568
(lp1569
g1564
ag1562
ag1563
asS'lastord'
p1570
I2
sg304
I00
sg305
g1564
sg306
I00
sg307
I00
sbsg313
I00
sg314
NsbsI15
(iLUT
LUTEntry
p1571
(dp1572
g4
Nsg5
S'Vector'
p1573
sg7
I15
sg8
Nsg9
I00
sg10
I00
sg11
g12
sg13
Nsg14
(iM3Types
M3ArrayType
p1574
(dp1575
g17
I00
sg18
I00
sg19
I00
sg20
I00
sg21
I00
sg22
I00
sg23
I01
sg24
I00
sg280
I205
sg281
I00
sg282
I00
sg283
I00
sg284
I00
sg285
I00
sg286
I00
sS'elementType'
p1576
g278
sg288
I00
sg289
I00
sg290
I01
sg291
I00
sg292
I01
sg308
S'InputTypes__Vector'
p1577
sg293
I00
sg294
I00
sg296
I00
sg297
I00
sg298
I00
sS'indexType'
p1578
Nsg301
I00
sg302
I00
sg303
I00
sg304
I00
sg306
I00
sg307
I00
sbsg313
I00
sg314
NsbsI16
(iLUT
LUTEntry
p1579
(dp1580
g4
Nsg5
S'MyRecType'
p1581
sg7
I16
sg8
Nsg9
I00
sg10
I00
sg11
g12
sg13
Nsg14
(iM3Types
M3RecordType
p1582
(dp1583
g17
I00
sg18
I00
sg19
I00
sg20
I01
sg21
I00
sg22
I00
sg23
I01
sg24
I00
sg25
(dp1584
S'color'
p1585
(iM3Types
Field
p1586
(dp1587
g8
Nsg30
(iRuleNodes
NullNode
p1588
(dp1589
g33
g273
sg35
(lp1590
sg37
(iRuleNodes
FieldNode
p1591
(dp1592
g33
g1417
sg41
(iRuleNodes
NullNode
p1593
(dp1594
g33
g41
sg35
(lp1595
sg37
g1591
sg46
I01
sg1421
I5
sg47
I00
sg48
(lp1596
sg50
I53
sbsg35
(lp1597
(iRuleNodes
IdListNode
p1598
(dp1599
g33
g99
sg35
(lp1600
(iRuleNodes
IdNode
p1601
(dp1602
g33
g1417
sg35
(lp1603
sg37
g1598
sg46
I01
sg61
g1585
sg62
S'%0A        '
p1604
sg64
I141
sg1421
I5
sg47
I00
sg48
(lp1605
g61
ag64
ag62
asg50
I48
sbasg37
g1591
sg46
I01
sg1421
I5
sg47
I00
sg48
(lp1606
sg50
I47
sba(iRuleNodes
TokNode
p1607
(dp1608
g33
g272
sg35
(lp1609
sg37
g1591
sg46
I01
sg64
I147
sg62
S' '
sg75
S':'
sg1421
I5
sg47
I00
sg48
(lp1610
g75
ag64
ag62
asg50
I49
sba(iRuleNodes
TypeNameNode
p1611
(dp1612
g33
g256
sg81
(iRuleNodes
QualIdNode
p1613
(dp1614
g33
g81
sg35
(lp1615
(iRuleNodes
IdNode
p1616
(dp1617
g33
g1417
sg35
(lp1618
sg37
g1613
sg46
I01
sg61
S'Color'
p1619
sg62
S' '
sg64
I149
sg1421
I5
sg47
I00
sg48
(lp1620
g61
ag64
ag62
asg50
I52
sbasg37
g1611
sg46
I01
sg1421
I5
sg47
I00
sg48
(lp1621
sg50
I51
sbsg35
(lp1622
g1613
asg37
g1591
sg46
I01
sg1421
I5
sg47
I00
sg48
(lp1623
sg50
I50
sbag1593
ag1588
asg99
g1598
sg37
(iRuleNodes
FieldListNode
p1624
(dp1625
g33
g261
sg35
(lp1626
g1591
a(iRuleNodes
SepNode
p1627
(dp1628
g33
g1417
sg35
(lp1629
sg37
g1624
sg46
I01
sg64
I155
sg62
S' '
sg75
S';'
sg1421
I5
sg47
I00
sg48
(lp1630
g75
ag64
ag62
asg50
I55
sba(iRuleNodes
FieldNode
p1631
(dp1632
g33
g1417
sg41
(iRuleNodes
NullNode
p1633
(dp1634
g33
g41
sg35
(lp1635
sg37
g1631
sg46
I01
sg1421
I6
sg47
I00
sg48
(lp1636
sg50
I63
sbsg35
(lp1637
(iRuleNodes
IdListNode
p1638
(dp1639
g33
g99
sg35
(lp1640
(iRuleNodes
IdNode
p1641
(dp1642
g33
g1417
sg35
(lp1643
sg37
g1638
sg46
I01
sg61
S'vector'
p1644
sg62
S'%0A        '
p1645
sg64
I166
sg1421
I6
sg47
I00
sg48
(lp1646
g61
ag64
ag62
asg50
I58
sbasg37
g1631
sg46
I01
sg1421
I6
sg47
I00
sg48
(lp1647
sg50
I57
sba(iRuleNodes
TokNode
p1648
(dp1649
g33
g272
sg35
(lp1650
sg37
g1631
sg46
I01
sg64
I173
sg62
S' '
sg75
S':'
sg1421
I6
sg47
I00
sg48
(lp1651
g75
ag64
ag62
asg50
I59
sba(iRuleNodes
TypeNameNode
p1652
(dp1653
g33
g256
sg81
(iRuleNodes
QualIdNode
p1654
(dp1655
g33
g81
sg35
(lp1656
(iRuleNodes
IdNode
p1657
(dp1658
g33
g1417
sg35
(lp1659
sg37
g1654
sg46
I01
sg61
S'Vector'
p1660
sg62
S' '
sg64
I175
sg1421
I6
sg47
I00
sg48
(lp1661
g61
ag64
ag62
asg50
I62
sbasg37
g1652
sg46
I01
sg1421
I6
sg47
I00
sg48
(lp1662
sg50
I61
sbsg35
(lp1663
g1654
asg37
g1631
sg46
I01
sg1421
I6
sg47
I00
sg48
(lp1664
sg50
I60
sbag1633
a(iRuleNodes
NullNode
p1665
(dp1666
g33
g273
sg35
(lp1667
sg37
g1631
sg46
I01
sg1421
I6
sg47
I00
sg48
(lp1668
sg50
I64
sbasg99
g1638
sg37
g1624
sg46
I01
sg256
g1652
sg272
g1648
sg273
g1665
sg1421
I6
sg47
I00
sg48
(lp1669
sg50
I56
sba(iRuleNodes
SepNode
p1670
(dp1671
g33
g1417
sg35
(lp1672
sg37
g1624
sg46
I01
sg64
I182
sg62
S' '
sg75
S';'
sg1421
I6
sg47
I00
sg48
(lp1673
g75
ag64
ag62
asg50
I65
sbasg37
(iRuleNodes
RecordNode
p1674
(dp1675
g33
g256
sg35
(lp1676
(iRuleNodes
KeyWordNode
p1677
(dp1678
g33
g263
sg35
(lp1679
sg37
g1674
sg46
I01
sg64
I125
sg62
S' '
sg75
g1463
sg1421
I4
sg47
I00
sg48
(lp1680
g75
ag64
ag62
asg50
I44
sbag1624
a(iRuleNodes
KeyWordNode
p1681
(dp1682
g33
g132
sg35
(lp1683
sg37
g1674
sg46
I01
sg64
I190
sg62
S'%0A     '
p1684
sg75
g1469
sg1421
I7
sg47
I00
sg48
(lp1685
g75
ag64
ag62
asg50
I66
sbasg132
g1681
sg37
(iRuleNodes
TypeDeclNode
p1686
(dp1687
g33
g1417
sg35
(lp1688
(iRuleNodes
IdNode
p1689
(dp1690
g33
g257
sg35
(lp1691
sg37
g1686
sg46
I01
sg61
g1581
sg62
S' '
sg64
I113
sg1421
I4
sg47
I00
sg48
(lp1692
g61
ag64
ag62
asg50
I41
sba(iRuleNodes
OpNode
p1693
(dp1694
g33
g259
sg35
(lp1695
sg37
g1686
sg46
I01
sg64
I123
sg62
S' '
sg75
S'='
sg1421
I4
sg47
I00
sg48
(lp1696
g75
ag64
ag62
asg50
I42
sbag1674
asg37
(iRuleNodes
TypeDeclsListNode
p1697
(dp1698
g33
g252
sg35
(lp1699
g1686
a(iRuleNodes
SepNode
p1700
(dp1701
g33
g1417
sg35
(lp1702
sg37
g1697
sg46
I01
sg64
I194
sg62
S' '
sg75
S';'
sg1421
I7
sg47
I00
sg48
(lp1703
g75
ag64
ag62
asg50
I67
sbasg37
(iRuleNodes
TypeDeclsNode
p1704
(dp1705
g33
g1417
sg35
(lp1706
(iRuleNodes
KeyWordNode
p1707
(dp1708
g33
g253
sg35
(lp1709
sg37
g1704
sg46
I01
sg64
I108
sg62
S'%0A     '
p1710
sg75
g12
sg1421
I4
sg47
I00
sg48
(lp1711
g75
ag64
ag62
asg50
I38
sbag1697
asg37
(iRuleNodes
InterfaceDeclListNode
p1712
(dp1713
g33
g247
sg35
(lp1714
(iRuleNodes
TypeDeclsNode
p1715
(dp1716
g33
g1417
sg35
(lp1717
(iRuleNodes
KeyWordNode
p1718
(dp1719
g33
g253
sg35
(lp1720
sg37
g1715
sg46
I01
sg64
I29
sg62
S'%0A     '
p1721
sg75
g12
sg1421
I2
sg47
I00
sg48
(lp1722
g75
ag64
ag62
asg50
I8
sba(iRuleNodes
TypeDeclsListNode
p1723
(dp1724
g33
g252
sg35
(lp1725
(iRuleNodes
TypeDeclNode
p1726
(dp1727
g33
g1417
sg35
(lp1728
(iRuleNodes
IdNode
p1729
(dp1730
g33
g257
sg35
(lp1731
sg37
g1726
sg46
I01
sg61
g1556
sg62
S' '
sg64
I34
sg1421
I2
sg47
I00
sg48
(lp1732
g61
ag64
ag62
asg50
I11
sba(iRuleNodes
OpNode
p1733
(dp1734
g33
g259
sg35
(lp1735
sg37
g1726
sg46
I01
sg64
I40
sg62
S' '
sg75
S'='
sg1421
I2
sg47
I00
sg48
(lp1736
g75
ag64
ag62
asg50
I12
sba(iRuleNodes
EnumNode
p1737
(dp1738
g33
g256
sg35
(lp1739
(iRuleNodes
TokNode
p1740
(dp1741
g33
S'lcr'
p1742
sg35
(lp1743
sg37
g1737
sg46
I01
sg64
I42
sg62
S' '
sg75
S'{'
sg1421
I2
sg47
I00
sg48
(lp1744
g75
ag64
ag62
asg50
I14
sba(iRuleNodes
IdListNode
p1745
(dp1746
g33
g99
sg35
(lp1747
(iRuleNodes
IdNode
p1748
(dp1749
g33
g1417
sg35
(lp1750
sg37
g1745
sg46
I01
sg61
g1564
sg62
S''
sg64
I43
sg1421
I2
sg47
I00
sg48
(lp1751
g61
ag64
ag62
asg50
I16
sba(iRuleNodes
SepNode
p1752
(dp1753
g33
g1417
sg35
(lp1754
sg37
g1745
sg46
I01
sg64
I46
sg62
S''
sg75
S','
sg1421
I2
sg47
I00
sg48
(lp1755
g75
ag64
ag62
asg50
I17
sba(iRuleNodes
IdNode
p1756
(dp1757
g33
g1417
sg35
(lp1758
sg37
g1745
sg46
I01
sg61
g1562
sg62
S' '
sg64
I48
sg1421
I2
sg47
I00
sg48
(lp1759
g61
ag64
ag62
asg50
I18
sba(iRuleNodes
SepNode
p1760
(dp1761
g33
g1417
sg35
(lp1762
sg37
g1745
sg46
I01
sg64
I52
sg62
S''
sg75
S','
sg1421
I2
sg47
I00
sg48
(lp1763
g75
ag64
ag62
asg50
I19
sba(iRuleNodes
IdNode
p1764
(dp1765
g33
g1417
sg35
(lp1766
sg37
g1745
sg46
I01
sg61
g1563
sg62
S' '
sg64
I54
sg1421
I2
sg47
I00
sg48
(lp1767
g61
ag64
ag62
asg50
I20
sbasg37
g1737
sg46
I01
sg1421
I2
sg47
I00
sg48
(lp1768
sg50
I15
sba(iRuleNodes
TokNode
p1769
(dp1770
g33
S'rcr'
p1771
sg35
(lp1772
sg37
g1737
sg46
I01
sg64
I59
sg62
S''
sg75
S'}'
sg1421
I2
sg47
I00
sg48
(lp1773
g75
ag64
ag62
asg50
I21
sbasg1742
g1740
sg99
g1745
sg37
g1726
sg7
I14
sg46
I01
sg1771
g1769
sg262
I01
sg1421
I2
sg264
I01
sg47
I00
sg265
g266
sg48
(lp1774
sg268
g1557
sg50
I13
sbasg37
g1723
sg46
I01
sg256
g1737
sg257
g1729
sg1421
I2
sg47
I00
sg48
(lp1775
sg259
g1733
sg50
I10
sba(iRuleNodes
SepNode
p1776
(dp1777
g33
g1417
sg35
(lp1778
sg37
g1723
sg46
I01
sg64
I61
sg62
S' '
sg75
S';'
sg1421
I2
sg47
I00
sg48
(lp1779
g75
ag64
ag62
asg50
I22
sbasg37
g1715
sg46
I01
sg1421
I2
sg47
I00
sg48
(lp1780
sg50
I9
sbasg37
g1712
sg252
g1723
sg46
I01
sg253
g1718
sg47
I00
sg48
(lp1781
sg50
I7
sg1421
I2
sba(iRuleNodes
TypeDeclsNode
p1782
(dp1783
g33
g1417
sg35
(lp1784
(iRuleNodes
KeyWordNode
p1785
(dp1786
g33
g253
sg35
(lp1787
sg37
g1782
sg46
I01
sg64
I69
sg62
S'%0A     '
p1788
sg75
g12
sg1421
I3
sg47
I00
sg48
(lp1789
g75
ag64
ag62
asg50
I24
sba(iRuleNodes
TypeDeclsListNode
p1790
(dp1791
g33
g252
sg35
(lp1792
(iRuleNodes
TypeDeclNode
p1793
(dp1794
g33
g1417
sg35
(lp1795
(iRuleNodes
IdNode
p1796
(dp1797
g33
g257
sg35
(lp1798
sg37
g1793
sg46
I01
sg61
g1573
sg62
S' '
sg64
I74
sg1421
I3
sg47
I00
sg48
(lp1799
g61
ag64
ag62
asg50
I27
sba(iRuleNodes
OpNode
p1800
(dp1801
g33
g259
sg35
(lp1802
sg37
g1793
sg46
I01
sg64
I81
sg62
S' '
sg75
S'='
sg1421
I3
sg47
I00
sg48
(lp1803
g75
ag64
ag62
asg50
I28
sba(iRuleNodes
ArrayNode
p1804
(dp1805
g33
g256
sS'kwa'
p1806
(iRuleNodes
KeyWordNode
p1807
(dp1808
g33
g1806
sg35
(lp1809
sg37
g1804
sg46
I01
sg64
I83
sg62
S' '
sg75
S'ARRAY'
p1810
sg1421
I3
sg47
I00
sg48
(lp1811
g75
ag64
ag62
asg50
I30
sbsg35
(lp1812
g1807
a(iRuleNodes
TypeListNode
p1813
(dp1814
g33
g252
sg35
(lp1815
sg37
g1804
sg46
I01
sg1421
I3
sg47
I00
sg48
(lp1816
sg50
I31
sba(iRuleNodes
KeyWordNode
p1817
(dp1818
g33
S'kwo'
p1819
sg35
(lp1820
sg37
g1804
sg46
I01
sg64
I89
sg62
S' '
sg75
S'OF'
p1821
sg1421
I3
sg47
I00
sg48
(lp1822
g75
ag64
ag62
asg50
I32
sba(iRuleNodes
TypeNameNode
p1823
(dp1824
g33
g256
sg81
(iRuleNodes
QualIdNode
p1825
(dp1826
g33
g81
sg35
(lp1827
(iRuleNodes
IdNode
p1828
(dp1829
g33
g1417
sg35
(lp1830
sg37
g1825
sg46
I01
sg61
S'INTEGER'
p1831
sg62
S' '
sg64
I92
sg1421
I3
sg47
I00
sg48
(lp1832
g61
ag64
ag62
asg50
I35
sbasg37
g1823
sg46
I01
sg1421
I3
sg47
I00
sg48
(lp1833
sg50
I34
sbsg35
(lp1834
g1825
asg37
g1804
sg46
I01
sg1421
I3
sg47
I00
sg48
(lp1835
sg50
I33
sbasg37
g1793
sg7
I15
sg252
g1813
sg46
I01
sg256
g1823
sg1819
g1817
sg262
I01
sg1421
I3
sg264
I01
sg47
I00
sg265
g266
sg48
(lp1836
sg268
g1574
sg50
I29
sbasg37
g1790
sg46
I01
sg256
g1804
sg257
g1796
sg1421
I3
sg47
I00
sg48
(lp1837
sg259
g1800
sg50
I26
sba(iRuleNodes
SepNode
p1838
(dp1839
g33
g1417
sg35
(lp1840
sg37
g1790
sg46
I01
sg64
I100
sg62
S' '
sg75
S';'
sg1421
I3
sg47
I00
sg48
(lp1841
g75
ag64
ag62
asg50
I36
sbasg37
g1782
sg46
I01
sg1421
I3
sg47
I00
sg48
(lp1842
sg50
I25
sbasg37
g1712
sg252
g1790
sg46
I01
sg253
g1785
sg47
I00
sg48
(lp1843
sg50
I23
sg1421
I3
sbag1704
asg179
(iLUT
LUT
p1844
(dp1845
g182
g1712
sg183
Nsg184
(dp1846
g1556
g1554
sg1573
g1571
sg1581
g1579
ssbsg37
(iRuleNodes
InterfaceNode
p1847
(dp1848
g33
g1417
sg189
(iRuleNodes
IdNode
p1849
(dp1850
g33
g189
sg35
(lp1851
sg37
g1847
sg46
I01
sg61
S'InputTypes'
p1852
sg62
S' '
sg64
I10
sg1421
I1
sg47
I00
sg48
(lp1853
g61
ag64
ag62
asg50
I3
sbsg35
(lp1854
(iRuleNodes
KeyWordNode
p1855
(dp1856
g33
g239
sg35
(lp1857
sg37
g1847
sg46
I01
sg64
I0
sg62
S''
sg75
g1514
sg1421
I1
sg47
I00
sg48
(lp1858
g75
ag64
ag62
asg50
I2
sbag1849
a(iRuleNodes
SepNode
p1859
(dp1860
g33
g241
sg35
(lp1861
sg37
g1847
sg46
I01
sg64
I21
sg62
S' '
sg75
S';'
sg1421
I1
sg47
I00
sg48
(lp1862
g75
ag64
ag62
asg50
I4
sba(iRuleNodes
ImportListNode
p1863
(dp1864
g33
g240
sg35
(lp1865
sg37
g1847
sg46
I01
sg1421
I1
sg47
I00
sg48
(lp1866
sg50
I5
sbag1712
a(iRuleNodes
KeyWordNode
p1867
(dp1868
g33
g132
sg35
(lp1869
sg37
g1847
sg46
I01
sg64
I197
sg62
S'%0A'
p1870
sg75
g1469
sg1421
I8
sg47
I00
sg48
(lp1871
g75
ag64
ag62
asg50
I68
sba(iRuleNodes
IdNode
p1872
(dp1873
g33
g245
sg35
(lp1874
sg37
g1847
sg46
I01
sg61
S'InputTypes'
p1875
sg62
S' '
sg64
I201
sg1421
I8
sg47
I00
sg48
(lp1876
g61
ag64
ag62
asg50
I69
sba(iRuleNodes
SepNode
p1877
(dp1878
g33
g244
sg35
(lp1879
sg37
g1847
sg46
I01
sg64
I211
sg62
S''
sg75
S'.'
sg1421
I8
sg47
I00
sg48
(lp1880
g75
ag64
ag62
asg50
I70
sbasg132
g1867
sg37
Nsg239
g1855
sg240
g1863
sg46
I01
sg241
g1859
sg242
S'/home/mark/m3/doc/InputTypes.i3'
p1881
sg244
g1877
sg245
g1872
sg47
I01
sg48
(lp1882
g242
asg247
g1712
sg179
(iLUT
LUT
p1883
(dp1884
g182
g1847
sg183
Nsg184
(dp1885
sbsg50
I1
sg1421
I1
sbsg46
I01
sg1421
I2
sg47
I01
sg48
(lp1886
sg50
I6
sbsg252
g1697
sg46
I01
sg253
g1707
sg47
I00
sg48
(lp1887
sg50
I37
sg1421
I4
sbsg46
I01
sg1421
I4
sg47
I00
sg48
(lp1888
sg50
I39
sbsg46
I01
sg256
g1674
sg257
g1689
sg1421
I4
sg47
I00
sg48
(lp1889
sg259
g1693
sg50
I40
sbsg7
I16
sg261
g1624
sg46
I01
sg262
I01
sg263
g1677
sg1421
I4
sg264
I01
sg47
I00
sg265
g266
sg48
(lp1890
sg268
g1582
sg50
I43
sbsg46
I01
sg1421
I5
sg47
I00
sg48
(lp1891
sg50
I45
sbsg46
I01
sg256
g1611
sg272
g1607
sg273
g1588
sg1421
I5
sg47
I00
sg48
(lp1892
sg50
I46
sbsg46
I01
sg1421
I5
sg47
I00
sg48
(lp1893
sg50
I54
sbsg256
g1557
sg5
g1585
sbsg1644
(iM3Types
Field
p1894
(dp1895
g8
Nsg30
g1665
sg256
g1574
sg5
g1644
sbssg280
I206
sg281
I00
sg282
I00
sg283
I00
sg284
I00
sg285
I00
sg286
I00
sg288
I00
sg289
I00
sg290
I00
sg291
I00
sg292
I00
sg308
S'InputTypes__MyRecType'
p1896
sg293
I00
sg294
I00
sg310
(lp1897
g1585
ag1644
asg296
I00
sg297
I00
sg298
I00
sg301
I00
sg261
(lp1898
g1586
ag1894
asg302
I00
sg303
I00
sg304
I00
sg306
I00
sg307
I00
sbsg313
I00
sg314
NsbsI17
(iLUT
LUTEntry
p1899
(dp1900
g4
Nsg5
VColor
p1901
sg7
I17
sg8
Nsg9
I00
sg10
I00
sg11
g12
sg13
Nsg14
(iM3Types
M3EnumType
p1902
(dp1903
g17
I00
sg18
I00
sg19
I00
sg20
I00
sg21
I00
sg22
I00
sg11
g1559
sg23
I01
sg24
I00
sg280
I249
sg281
I00
sg282
I00
sg1560
(dp1904
Vblue
p1905
I1
sVgreen
p1906
I2
sVred
p1907
I0
ssg283
I00
sg284
I01
sg285
I00
sg286
I00
sg287
I0
sg288
I00
sg289
I00
sg1565
I0
sg290
I00
sg291
I00
sg292
I00
sg308
VInputTypes__Color
p1908
sg293
I00
sg294
I00
sg1567
g1902
sg296
I01
sg297
I00
sg298
I00
sg299
g1906
sg301
I00
sg302
I00
sg303
I00
sg1568
(lp1909
g1907
ag1905
ag1906
asg1570
I2
sg304
I00
sg305
g1907
sg306
I00
sg307
I00
sbsg313
I00
sg314
NsbsI18
(iLUT
LUTEntry
p1910
(dp1911
g4
Nsg5
VVector
p1912
sg7
I18
sg8
Nsg9
I00
sg10
I00
sg11
g12
sg13
Nsg14
(iM3Types
M3ArrayType
p1913
(dp1914
g17
I00
sg18
I00
sg19
I00
sg20
I00
sg21
I00
sg22
I00
sg23
I01
sg24
I00
sg280
I250
sg281
I00
sg282
I00
sg283
I00
sg284
I00
sg285
I00
sg286
I00
sg1576
g278
sg288
I00
sg289
I00
sg290
I01
sg291
I00
sg292
I01
sg308
VInputTypes__Vector
p1915
sg293
I00
sg294
I00
sg296
I00
sg297
I00
sg298
I00
sg1578
Nsg301
I00
sg302
I00
sg303
I00
sg304
I00
sg306
I00
sg307
I00
sbsg313
I00
sg314
NsbsI19
(iLUT
LUTEntry
p1916
(dp1917
g4
Nsg5
VMyRecType
p1918
sg7
I19
sg8
Nsg9
I00
sg10
I00
sg11
g12
sg13
Nsg14
(iM3Types
M3RecordType
p1919
(dp1920
g17
I00
sg18
I00
sg19
I00
sg20
I01
sg21
I00
sg22
I00
sg23
I01
sg24
I00
sg25
(dp1921
Vcolor
p1922
(iM3Types
Field
p1923
(dp1924
g8
Nsg30
(iRuleNodes
NullNode
p1925
(dp1926
g33
VconstExpr
p1927
sg35
(lp1928
sg37
(iRuleNodes
FieldNode
p1929
(dp1930
g33
Vanon
p1931
sg41
(iRuleNodes
NullNode
p1932
(dp1933
g33
Vass
p1934
sg35
(lp1935
sg37
g1929
sg46
I01
sg47
I00
sg48
(lp1936
sg50
V53
p1937
sbsg35
(lp1938
(iRuleNodes
IdListNode
p1939
(dp1940
g33
Vidlist
p1941
sg35
(lp1942
(iRuleNodes
IdNode
p1943
(dp1944
g33
Vanon
p1945
sg35
(lp1946
sg37
g1939
sg46
I01
sg61
g1922
sg62
V%0A        
p1947
sg64
V141
p1948
sg47
I00
sg48
(lp1949
g61
ag64
ag62
asg50
V48
p1950
sbasg37
g1929
sg46
I01
sg47
I00
sg48
(lp1951
sg50
V47
p1952
sba(iRuleNodes
TokNode
p1953
(dp1954
g33
Vcol
p1955
sg35
(lp1956
sg37
g1929
sg46
I01
sg64
V147
p1957
sg62
V 
sg75
V:
sg47
I00
sg48
(lp1958
g75
ag64
ag62
asg50
V49
p1959
sba(iRuleNodes
TypeNameNode
p1960
(dp1961
g33
Vtipe
p1962
sg81
(iRuleNodes
QualIdNode
p1963
(dp1964
g33
VqualId
p1965
sg35
(lp1966
(iRuleNodes
IdNode
p1967
(dp1968
g33
Vanon
p1969
sg35
(lp1970
sg37
g1963
sg46
I01
sg61
VColor
p1971
sg62
V 
sg64
V149
p1972
sg47
I00
sg48
(lp1973
g61
ag64
ag62
asg50
V52
p1974
sbasg37
g1960
sg46
I01
sg47
I00
sg48
(lp1975
sg50
V51
p1976
sbsg35
(lp1977
g1963
asg37
g1929
sg46
I01
sg47
I00
sg48
(lp1978
sg50
V50
p1979
sbag1932
ag1925
asg99
g1939
sg37
(iRuleNodes
FieldListNode
p1980
(dp1981
g33
Vfields
p1982
sg35
(lp1983
g1929
a(iRuleNodes
SepNode
p1984
(dp1985
g33
Vanon
p1986
sg35
(lp1987
sg37
g1980
sg46
I01
sg64
V155
p1988
sg62
V 
sg75
V;
sg47
I00
sg48
(lp1989
g75
ag64
ag62
asg50
V55
p1990
sba(iRuleNodes
FieldNode
p1991
(dp1992
g33
Vanon
p1993
sg41
(iRuleNodes
NullNode
p1994
(dp1995
g33
Vass
p1996
sg35
(lp1997
sg37
g1991
sg46
I01
sg47
I00
sg48
(lp1998
sg50
V63
p1999
sbsg35
(lp2000
(iRuleNodes
IdListNode
p2001
(dp2002
g33
Vidlist
p2003
sg35
(lp2004
(iRuleNodes
IdNode
p2005
(dp2006
g33
Vanon
p2007
sg35
(lp2008
sg37
g2001
sg46
I01
sg61
Vvector
p2009
sg62
V%0A        
p2010
sg64
V166
p2011
sg47
I00
sg48
(lp2012
g61
ag64
ag62
asg50
V58
p2013
sbasg37
g1991
sg46
I01
sg47
I00
sg48
(lp2014
sg50
V57
p2015
sba(iRuleNodes
TokNode
p2016
(dp2017
g33
Vcol
p2018
sg35
(lp2019
sg37
g1991
sg46
I01
sg64
V173
p2020
sg62
V 
sg75
V:
sg47
I00
sg48
(lp2021
g75
ag64
ag62
asg50
V59
p2022
sba(iRuleNodes
TypeNameNode
p2023
(dp2024
g33
Vtipe
p2025
sg81
(iRuleNodes
QualIdNode
p2026
(dp2027
g33
VqualId
p2028
sg35
(lp2029
(iRuleNodes
IdNode
p2030
(dp2031
g33
Vanon
p2032
sg35
(lp2033
sg37
g2026
sg46
I01
sg61
VVector
p2034
sg62
V 
sg64
V175
p2035
sg47
I00
sg48
(lp2036
g61
ag64
ag62
asg50
V62
p2037
sbasg37
g2023
sg46
I01
sg47
I00
sg48
(lp2038
sg50
V61
p2039
sbsg35
(lp2040
g2026
asg37
g1991
sg46
I01
sg47
I00
sg48
(lp2041
sg50
V60
p2042
sbag1994
a(iRuleNodes
NullNode
p2043
(dp2044
g33
VconstExpr
p2045
sg35
(lp2046
sg37
g1991
sg46
I01
sg47
I00
sg48
(lp2047
sg50
V64
p2048
sbasg99
g2001
sg37
g1980
sg46
I01
sg256
g2023
sg272
g2016
sg273
g2043
sg47
I00
sg48
(lp2049
sg50
V56
p2050
sba(iRuleNodes
SepNode
p2051
(dp2052
g33
Vanon
p2053
sg35
(lp2054
sg37
g1980
sg46
I01
sg64
V182
p2055
sg62
V 
sg75
V;
sg47
I00
sg48
(lp2056
g75
ag64
ag62
asg50
V65
p2057
sbasg37
(iRuleNodes
RecordNode
p2058
(dp2059
g33
Vtipe
p2060
sg35
(lp2061
(iRuleNodes
KeyWordNode
p2062
(dp2063
g33
Vkwr
p2064
sg35
(lp2065
sg37
g2058
sg46
I01
sg64
V125
p2066
sg62
V 
sg75
VRECORD
p2067
sg47
I00
sg48
(lp2068
g75
ag64
ag62
asg50
V44
p2069
sbag1980
a(iRuleNodes
KeyWordNode
p2070
(dp2071
g33
Vkwe
p2072
sg35
(lp2073
sg37
g2058
sg46
I01
sg64
V190
p2074
sg62
V%0A     
p2075
sg75
VEND
p2076
sg47
I00
sg48
(lp2077
g75
ag64
ag62
asg50
V66
p2078
sbasg132
g2070
sg37
(iRuleNodes
TypeDeclNode
p2079
(dp2080
g33
Vanon
p2081
sg35
(lp2082
(iRuleNodes
IdNode
p2083
(dp2084
g33
Vid
p2085
sg35
(lp2086
sg37
g2079
sg46
I01
sg61
g1918
sg62
V 
sg64
V113
p2087
sg47
I00
sg48
(lp2088
g61
ag64
ag62
asg50
V41
p2089
sba(iRuleNodes
OpNode
p2090
(dp2091
g33
Vsign
p2092
sg35
(lp2093
sg37
g2079
sg46
I01
sg64
V123
p2094
sg62
V 
sg75
V=
sg47
I00
sg48
(lp2095
g75
ag64
ag62
asg50
V42
p2096
sbag2058
asg37
(iRuleNodes
TypeDeclsListNode
p2097
(dp2098
g33
VtypeList
p2099
sg35
(lp2100
g2079
a(iRuleNodes
SepNode
p2101
(dp2102
g33
Vanon
p2103
sg35
(lp2104
sg37
g2097
sg46
I01
sg64
V194
p2105
sg62
V 
sg75
V;
sg47
I00
sg48
(lp2106
g75
ag64
ag62
asg50
V67
p2107
sbasg37
(iRuleNodes
TypeDeclsNode
p2108
(dp2109
g33
Vanon
p2110
sg35
(lp2111
(iRuleNodes
KeyWordNode
p2112
(dp2113
g33
Vkwt
p2114
sg35
(lp2115
sg37
g2108
sg46
I01
sg64
V108
p2116
sg62
V%0A     
p2117
sg75
VTYPE
p2118
sg47
I00
sg48
(lp2119
g75
ag64
ag62
asg50
V38
p2120
sbag2097
asg37
(iRuleNodes
InterfaceDeclListNode
p2121
(dp2122
g33
Vdecls
p2123
sg35
(lp2124
(iRuleNodes
TypeDeclsNode
p2125
(dp2126
g33
Vanon
p2127
sg35
(lp2128
(iRuleNodes
KeyWordNode
p2129
(dp2130
g33
Vkwt
p2131
sg35
(lp2132
sg37
g2125
sg46
I01
sg64
V29
p2133
sg62
V%0A     
p2134
sg75
VTYPE
p2135
sg47
I00
sg48
(lp2136
g75
ag64
ag62
asg50
V8
sba(iRuleNodes
TypeDeclsListNode
p2137
(dp2138
g33
VtypeList
p2139
sg35
(lp2140
(iRuleNodes
TypeDeclNode
p2141
(dp2142
g33
Vanon
p2143
sg35
(lp2144
(iRuleNodes
IdNode
p2145
(dp2146
g33
Vid
p2147
sg35
(lp2148
sg37
g2141
sg46
I01
sg61
g1901
sg62
V 
sg64
V34
p2149
sg47
I00
sg48
(lp2150
g61
ag64
ag62
asg50
V11
p2151
sba(iRuleNodes
OpNode
p2152
(dp2153
g33
Vsign
p2154
sg35
(lp2155
sg37
g2141
sg46
I01
sg64
V40
p2156
sg62
V 
sg75
V=
sg47
I00
sg48
(lp2157
g75
ag64
ag62
asg50
V12
p2158
sba(iRuleNodes
EnumNode
p2159
(dp2160
g33
Vtipe
p2161
sg35
(lp2162
(iRuleNodes
TokNode
p2163
(dp2164
g33
Vlcr
p2165
sg35
(lp2166
sg37
g2159
sg46
I01
sg64
V42
p2167
sg62
V 
sg75
V{
sg47
I00
sg48
(lp2168
g75
ag64
ag62
asg50
V14
p2169
sba(iRuleNodes
IdListNode
p2170
(dp2171
g33
Vidlist
p2172
sg35
(lp2173
(iRuleNodes
IdNode
p2174
(dp2175
g33
Vanon
p2176
sg35
(lp2177
sg37
g2170
sg46
I01
sg61
g1907
sg62
V
sg64
V43
p2178
sg47
I00
sg48
(lp2179
g61
ag64
ag62
asg50
V16
p2180
sba(iRuleNodes
SepNode
p2181
(dp2182
g33
Vanon
p2183
sg35
(lp2184
sg37
g2170
sg46
I01
sg64
V46
p2185
sg62
V
sg75
V,
sg47
I00
sg48
(lp2186
g75
ag64
ag62
asg50
V17
p2187
sba(iRuleNodes
IdNode
p2188
(dp2189
g33
Vanon
p2190
sg35
(lp2191
sg37
g2170
sg46
I01
sg61
g1905
sg62
V 
sg64
V48
p2192
sg47
I00
sg48
(lp2193
g61
ag64
ag62
asg50
V18
p2194
sba(iRuleNodes
SepNode
p2195
(dp2196
g33
Vanon
p2197
sg35
(lp2198
sg37
g2170
sg46
I01
sg64
V52
p2199
sg62
V
sg75
V,
sg47
I00
sg48
(lp2200
g75
ag64
ag62
asg50
V19
p2201
sba(iRuleNodes
IdNode
p2202
(dp2203
g33
Vanon
p2204
sg35
(lp2205
sg37
g2170
sg46
I01
sg61
g1906
sg62
V 
sg64
V54
p2206
sg47
I00
sg48
(lp2207
g61
ag64
ag62
asg50
V20
p2208
sbasg37
g2159
sg46
I01
sg47
I00
sg48
(lp2209
sg50
V15
p2210
sba(iRuleNodes
TokNode
p2211
(dp2212
g33
Vrcr
p2213
sg35
(lp2214
sg37
g2159
sg46
I01
sg64
V59
p2215
sg62
V
sg75
V}
sg47
I00
sg48
(lp2216
g75
ag64
ag62
asg50
V21
p2217
sbasg1742
g2163
sg99
g2170
sg37
g2141
sg7
I17
sg46
I01
sg1771
g2211
sg262
I01
sg264
I01
sg47
I00
sg265
g266
sg48
(lp2218
sg268
g1902
sg50
V13
p2219
sbasg37
g2137
sg46
I01
sg256
g2159
sg257
g2145
sg47
I00
sg48
(lp2220
sg259
g2152
sg50
V10
p2221
sba(iRuleNodes
SepNode
p2222
(dp2223
g33
Vanon
p2224
sg35
(lp2225
sg37
g2137
sg46
I01
sg64
V61
p2226
sg62
V 
sg75
V;
sg47
I00
sg48
(lp2227
g75
ag64
ag62
asg50
V22
p2228
sbasg37
g2125
sg46
I01
sg47
I00
sg48
(lp2229
sg50
V9
sbasg37
g2121
sg252
g2137
sg46
I01
sg253
g2129
sg47
I00
sg48
(lp2230
sg50
V7
sba(iRuleNodes
TypeDeclsNode
p2231
(dp2232
g33
Vanon
p2233
sg35
(lp2234
(iRuleNodes
KeyWordNode
p2235
(dp2236
g33
Vkwt
p2237
sg35
(lp2238
sg37
g2231
sg46
I01
sg64
V69
p2239
sg62
V%0A     
p2240
sg75
VTYPE
p2241
sg47
I00
sg48
(lp2242
g75
ag64
ag62
asg50
V24
p2243
sba(iRuleNodes
TypeDeclsListNode
p2244
(dp2245
g33
VtypeList
p2246
sg35
(lp2247
(iRuleNodes
TypeDeclNode
p2248
(dp2249
g33
Vanon
p2250
sg35
(lp2251
(iRuleNodes
IdNode
p2252
(dp2253
g33
Vid
p2254
sg35
(lp2255
sg37
g2248
sg46
I01
sg61
g1912
sg62
V 
sg64
V74
p2256
sg47
I00
sg48
(lp2257
g61
ag64
ag62
asg50
V27
p2258
sba(iRuleNodes
OpNode
p2259
(dp2260
g33
Vsign
p2261
sg35
(lp2262
sg37
g2248
sg46
I01
sg64
V81
p2263
sg62
V 
sg75
V=
sg47
I00
sg48
(lp2264
g75
ag64
ag62
asg50
V28
p2265
sba(iRuleNodes
ArrayNode
p2266
(dp2267
g33
Vtipe
p2268
sg1806
(iRuleNodes
KeyWordNode
p2269
(dp2270
g33
Vkwa
p2271
sg35
(lp2272
sg37
g2266
sg46
I01
sg64
V83
p2273
sg62
V 
sg75
VARRAY
p2274
sg47
I00
sg48
(lp2275
g75
ag64
ag62
asg50
V30
p2276
sbsg35
(lp2277
g2269
a(iRuleNodes
TypeListNode
p2278
(dp2279
g33
VtypeList
p2280
sg35
(lp2281
sg37
g2266
sg46
I01
sg47
I00
sg48
(lp2282
sg50
V31
p2283
sba(iRuleNodes
KeyWordNode
p2284
(dp2285
g33
Vkwo
p2286
sg35
(lp2287
sg37
g2266
sg46
I01
sg64
V89
p2288
sg62
V 
sg75
VOF
p2289
sg47
I00
sg48
(lp2290
g75
ag64
ag62
asg50
V32
p2291
sba(iRuleNodes
TypeNameNode
p2292
(dp2293
g33
Vtipe
p2294
sg81
(iRuleNodes
QualIdNode
p2295
(dp2296
g33
VqualId
p2297
sg35
(lp2298
(iRuleNodes
IdNode
p2299
(dp2300
g33
Vanon
p2301
sg35
(lp2302
sg37
g2295
sg46
I01
sg61
VINTEGER
p2303
sg62
V 
sg64
V92
p2304
sg47
I00
sg48
(lp2305
g61
ag64
ag62
asg50
V35
p2306
sbasg37
g2292
sg46
I01
sg47
I00
sg48
(lp2307
sg50
V34
p2308
sbsg35
(lp2309
g2295
asg37
g2266
sg46
I01
sg47
I00
sg48
(lp2310
sg50
V33
p2311
sbasg37
g2248
sg7
I18
sg252
g2278
sg46
I01
sg256
g2292
sg1819
g2284
sg262
I01
sg264
I01
sg47
I00
sg265
g266
sg48
(lp2312
sg268
g1913
sg50
V29
p2313
sbasg37
g2244
sg46
I01
sg256
g2266
sg257
g2252
sg47
I00
sg48
(lp2314
sg259
g2259
sg50
V26
p2315
sba(iRuleNodes
SepNode
p2316
(dp2317
g33
Vanon
p2318
sg35
(lp2319
sg37
g2244
sg46
I01
sg64
V100
p2320
sg62
V 
sg75
V;
sg47
I00
sg48
(lp2321
g75
ag64
ag62
asg50
V36
p2322
sbasg37
g2231
sg46
I01
sg47
I00
sg48
(lp2323
sg50
V25
p2324
sbasg37
g2121
sg252
g2244
sg46
I01
sg253
g2235
sg47
I00
sg48
(lp2325
sg50
V23
p2326
sbag2108
asg179
(iLUT
LUT
p2327
(dp2328
g182
g2121
sg183
Nsg184
(dp2329
g1901
g1899
sg1912
g1910
sg1918
g1916
ssbsg37
(iRuleNodes
InterfaceNode
p2330
(dp2331
g33
Vanon
p2332
sg189
(iRuleNodes
IdNode
p2333
(dp2334
g33
Vmodname
p2335
sg35
(lp2336
sg37
g2330
sg46
I01
sg61
VInputTypes
p2337
sg62
V 
sg64
V10
p2338
sg47
I00
sg48
(lp2339
g61
ag64
ag62
asg50
V3
sbsg35
(lp2340
(iRuleNodes
KeyWordNode
p2341
(dp2342
g33
Vkwi
p2343
sg35
(lp2344
sg37
g2330
sg46
I01
sg64
V0
sg62
V
sg75
VINTERFACE
p2345
sg47
I00
sg48
(lp2346
g75
ag64
ag62
asg50
V2
sbag2333
a(iRuleNodes
SepNode
p2347
(dp2348
g33
Vts
p2349
sg35
(lp2350
sg37
g2330
sg46
I01
sg64
V21
p2351
sg62
V 
sg75
V;
sg47
I00
sg48
(lp2352
g75
ag64
ag62
asg50
V4
sba(iRuleNodes
ImportListNode
p2353
(dp2354
g33
Vimports
p2355
sg35
(lp2356
sg37
g2330
sg46
I01
sg47
I00
sg48
(lp2357
sg50
V5
sbag2121
a(iRuleNodes
KeyWordNode
p2358
(dp2359
g33
Vkwe
p2360
sg35
(lp2361
sg37
g2330
sg46
I01
sg64
V197
p2362
sg62
V%0A
p2363
sg75
VEND
p2364
sg47
I00
sg48
(lp2365
g75
ag64
ag62
asg50
V68
p2366
sba(iRuleNodes
IdNode
p2367
(dp2368
g33
VendId
p2369
sg35
(lp2370
sg37
g2330
sg46
I01
sg61
VInputTypes
p2371
sg62
V 
sg64
V201
p2372
sg47
I00
sg48
(lp2373
g61
ag64
ag62
asg50
V69
p2374
sba(iRuleNodes
SepNode
p2375
(dp2376
g33
Vtd
p2377
sg35
(lp2378
sg37
g2330
sg46
I01
sg64
V211
p2379
sg62
V
sg75
V.
sg47
I00
sg48
(lp2380
g75
ag64
ag62
asg50
V70
p2381
sbasg132
g2358
sg37
Nsg239
g2341
sg240
g2353
sg46
I01
sg241
g2347
sg242
V/home/mark/m3/doc/InputTypes.i3
p2382
sg244
g2375
sg245
g2367
sg47
I01
sg48
(lp2383
g242
asg247
g2121
sg50
V1
sg179
(iLUT
LUT
p2384
(dp2385
g182
g2330
sg183
Nsg184
(dp2386
sbsbsg46
I01
sg47
I01
sg48
(lp2387
sg50
V6
sbsg252
g2097
sg46
I01
sg253
g2112
sg47
I00
sg48
(lp2388
sg50
V37
p2389
sbsg46
I01
sg47
I00
sg48
(lp2390
sg50
V39
p2391
sbsg46
I01
sg256
g2058
sg257
g2083
sg47
I00
sg48
(lp2392
sg259
g2090
sg50
V40
p2393
sbsg7
I19
sg261
g1980
sg46
I01
sg262
I01
sg263
g2062
sg264
I01
sg47
I00
sg265
g266
sg48
(lp2394
sg268
g1919
sg50
V43
p2395
sbsg46
I01
sg47
I00
sg48
(lp2396
sg50
V45
p2397
sbsg46
I01
sg256
g1960
sg272
g1953
sg273
g1925
sg47
I00
sg48
(lp2398
sg50
V46
p2399
sbsg46
I01
sg47
I00
sg48
(lp2400
sg50
V54
p2401
sbsg256
g1902
sg5
g1922
sbsg2009
(iM3Types
Field
p2402
(dp2403
g8
Nsg30
g2043
sg256
g1913
sg5
g2009
sbssg280
I251
sg281
I00
sg282
I00
sg283
I00
sg284
I00
sg285
I00
sg286
I00
sg288
I00
sg289
I00
sg290
I00
sg291
I00
sg292
I00
sg308
VInputTypes__MyRecType
p2404
sg293
I00
sg294
I00
sg310
(lp2405
g1922
ag2009
asg296
I00
sg297
I00
sg298
I00
sg301
I00
sg261
(lp2406
g1923
ag2402
asg302
I00
sg303
I00
sg304
I00
sg306
I00
sg307
I00
sbsg313
I00
sg314
NsbsI20
(iLUT
LUTEntry
p2407
(dp2408
g4
Nsg5
S'vk'
p2409
sg7
I20
sg8
Nsg9
I00
sg10
I00
sg11
g12
sg13
Nsg14
(iM3Types
M3EnumType
p2410
(dp2411
g17
I00
sg18
I00
sg19
I00
sg20
I00
sg21
I00
sg22
I00
sg11
g1559
sg23
I01
sg24
I00
sg280
I257
sg281
I00
sg282
I00
sg1560
(dp2412
S'car'
p2413
I0
sS'truck'
p2414
I1
sS'motorcycle'
p2415
I2
ssg283
I00
sg284
I01
sg285
I00
sg286
I00
sg287
I0
sg288
I00
sg289
I00
sg1565
I0
sg290
I00
sg291
I00
sg292
I00
sg308
S'Traffic__vk'
p2416
sg293
I00
sg294
I00
sg1567
g2410
sg296
I01
sg297
I00
sg298
I00
sg299
g2415
sg301
I00
sg302
I00
sg303
I00
sg1568
(lp2417
g2413
ag2414
ag2415
asg1570
I2
sg304
I00
sg305
g2413
sg306
I00
sg307
I00
sbsg313
I00
sg314
NsbsI21
(iLUT
LUTEntry
p2418
(dp2419
g4
Nsg5
S'MetricWeight'
p2420
sg7
I21
sg8
Nsg9
I00
sg10
I00
sg11
g12
sg13
Nsg14
(iM3Types
M3IntegerType
p2421
(dp2422
g17
I00
sg18
I00
sg19
I00
sg20
I00
sg21
I00
sg22
I00
sg23
I01
sg24
I01
sg280
I258
sg281
I00
sg282
I00
sg283
I00
sg284
I00
sg285
I00
sg286
I00
sg287
L-170141183460469231731687303715884105728L
sg288
I00
sg289
I00
sg290
I00
sg291
I00
sg292
I00
sg308
S'Traffic__MetricWeight'
p2423
sg293
I00
sg294
I00
sg295
(lp2424
(S'tonne'
p2425
I1000000
tp2426
a(S'kg'
p2427
I1000
tp2428
a(S'g'
I1
tp2429
asg296
I01
sg297
I00
sg298
I00
sg299
L170141183460469231731687303715884105727L
sg301
I00
sg302
I00
sg303
I00
sg304
I00
sg305
L-170141183460469231731687303715884105728L
sg306
I00
sg307
I01
sbsg313
I00
sg314
NsbsI22
(iLUT
LUTEntry
p2430
(dp2431
g4
Nsg5
S'vehicle'
p2432
sg7
I22
sg8
Nsg9
I00
sg10
I00
sg11
g12
sg13
Nsg14
(iM3Types
M3VariantRecordType
p2433
(dp2434
g17
I00
sg18
I00
sg19
I00
sg20
I01
sg21
I00
sg22
I00
sg23
I01
sg24
I00
sg25
(dp2435
S'kind'
p2436
(iM3Types
Field
p2437
(dp2438
g8
Nsg30
(iRuleNodes
NullNode
p2439
(dp2440
g33
g273
sg35
(lp2441
sg37
(iRuleNodes
FieldNode
p2442
(dp2443
g33
S'tagField'
p2444
sg41
(iRuleNodes
NullNode
p2445
(dp2446
g33
g41
sg35
(lp2447
sg37
g2442
sg46
I01
sg1421
I7
sg47
I00
sg48
(lp2448
sg50
I67
sbsg35
(lp2449
(iRuleNodes
IdListNode
p2450
(dp2451
g33
g99
sg35
(lp2452
(iRuleNodes
IdNode
p2453
(dp2454
g33
g1417
sg35
(lp2455
sg37
g2450
sg46
I01
sg61
g2436
sg62
S' '
sg64
I153
sg1421
I7
sg47
I00
sg48
(lp2456
g61
ag64
ag62
asg50
I62
sbasg37
g2442
sg46
I01
sg1421
I7
sg47
I00
sg48
(lp2457
sg50
I61
sba(iRuleNodes
TokNode
p2458
(dp2459
g33
g272
sg35
(lp2460
sg37
g2442
sg46
I01
sg64
I158
sg62
S' '
sg75
S':'
sg1421
I7
sg47
I00
sg48
(lp2461
g75
ag64
ag62
asg50
I63
sba(iRuleNodes
TypeNameNode
p2462
(dp2463
g33
g256
sg81
(iRuleNodes
QualIdNode
p2464
(dp2465
g33
g81
sg35
(lp2466
(iRuleNodes
IdNode
p2467
(dp2468
g33
g1417
sg35
(lp2469
sg37
g2464
sg46
I01
sg61
S'vk'
p2470
sg62
S' '
sg64
I160
sg1421
I7
sg47
I00
sg48
(lp2471
g61
ag64
ag62
asg50
I66
sbasg37
g2462
sg46
I01
sg1421
I7
sg47
I00
sg48
(lp2472
sg50
I65
sbsg35
(lp2473
g2464
asg37
g2442
sg46
I01
sg1421
I7
sg47
I00
sg48
(lp2474
sg50
I64
sbag2445
ag2439
asg99
g2450
sg37
(iRuleNodes
VariantRecordNode
p2475
(dp2476
S'kwc'
p2477
(iRuleNodes
KeyWordNode
p2478
(dp2479
g33
g2477
sg35
(lp2480
sg37
g2475
sg46
I01
sg64
I148
sg62
S' %0A    '
p2481
sg75
S'CASE'
p2482
sg1421
I7
sg47
I00
sg48
(lp2483
g75
ag64
ag62
asg50
I59
sbsg132
(iRuleNodes
KeyWordNode
p2484
(dp2485
g33
g132
sg35
(lp2486
sg37
g2475
sg46
I01
sg64
I389
sg62
S'%0A  '
p2487
sg75
g1469
sg1421
I16
sg47
I00
sg48
(lp2488
g75
ag64
ag62
asg50
I193
sbsS'sfields'
p2489
(iRuleNodes
FieldListNode
p2490
(dp2491
g33
g2489
sg35
(lp2492
(iRuleNodes
FieldNode
p2493
(dp2494
g33
g1417
sg41
(iRuleNodes
NullNode
p2495
(dp2496
g33
g41
sg35
(lp2497
sg37
g2493
sg46
I01
sg1421
I15
sg47
I00
sg48
(lp2498
sg50
I190
sbsg35
(lp2499
(iRuleNodes
IdListNode
p2500
(dp2501
g33
g99
sg35
(lp2502
(iRuleNodes
IdNode
p2503
(dp2504
g33
g1417
sg35
(lp2505
sg37
g2500
sg46
I01
sg61
S'topSpeed'
p2506
sg62
S'%0A    '
p2507
sg64
I363
sg1421
I15
sg47
I00
sg48
(lp2508
g61
ag64
ag62
asg50
I170
sbasg37
g2493
sg46
I01
sg1421
I15
sg47
I00
sg48
(lp2509
sg50
I169
sba(iRuleNodes
TokNode
p2510
(dp2511
g33
g272
sg35
(lp2512
sg37
g2493
sg46
I01
sg64
I372
sg62
S' '
sg75
S':'
sg1421
I15
sg47
I00
sg48
(lp2513
g75
ag64
ag62
asg50
I171
sba(iRuleNodes
SubrangeNode
p2514
(dp2515
g33
g256
sg35
(lp2516
(iRuleNodes
TokNode
p2517
(dp2518
g33
S'lsq'
p2519
sg35
(lp2520
sg37
g2514
sg46
I01
sg64
I374
sg62
S' '
sg75
S'['
sg1421
I15
sg47
I00
sg48
(lp2521
g75
ag64
ag62
asg50
I173
sba(iRuleNodes
ConstExprNode
p2522
(dp2523
g33
S'const1'
p2524
sg35
(lp2525
(iRuleNodes
ExprNode
p2526
(dp2527
g33
S'expr'
p2528
sg35
(lp2529
(iRuleNodes
NumberNode
p2530
(dp2531
g33
g2528
sS'scaleMult'
p2532
I1
sg35
(lp2533
(iRuleNodes
IntNode
p2534
(dp2535
g33
S'intVal'
p2536
sg35
(lp2537
sg37
g2530
sg47
I00
sg46
I01
sg62
S''
sg64
I375
sg1421
I15
sS'intname'
p2538
S'30'
p2539
sg48
(lp2540
g2538
ag64
ag62
asg50
I177
sba(iRuleNodes
NullNode
p2541
(dp2542
g33
g244
sg35
(lp2543
sg37
g2530
sg46
I01
sg1421
I15
sg47
I00
sg48
(lp2544
sg50
I178
sba(iRuleNodes
NullNode
p2545
(dp2546
g33
S'numberRest'
p2547
sg35
(lp2548
sg37
g2530
sg46
I01
sg1421
I15
sg47
I00
sg48
(lp2549
sg50
I179
sba(iRuleNodes
NullNode
p2550
(dp2551
g33
g295
sg35
(lp2552
sg37
g2530
sg46
I01
sg1421
I15
sg47
I00
sg48
(lp2553
sg50
I180
sbasg37
g2526
sg2536
g2534
sg46
I01
sg2547
g2545
sg295
g2550
sg1421
I15
sg47
I00
sg48
(lp2554
sg244
g2541
sg50
I176
sS'scaleType'
p2555
NsbasS'cachedType'
p2556
g278
sg37
g2522
sg2528
g2530
sg46
I01
sS'exprType'
p2557
g278
sg1421
I15
sg47
I00
sg48
(lp2558
sg50
I175
sbasg2556
g278
sg37
g2514
sg2528
g2526
sg46
I01
sg1421
I15
sg47
I00
sg48
(lp2559
sg50
I174
sba(iRuleNodes
SepNode
p2560
(dp2561
g33
S'tdd'
p2562
sg35
(lp2563
sg37
g2514
sg46
I01
sg64
I378
sg62
S' '
sg75
S'..'
p2564
sg1421
I15
sg47
I00
sg48
(lp2565
g75
ag64
ag62
asg50
I181
sba(iRuleNodes
ConstExprNode
p2566
(dp2567
g33
S'const2'
p2568
sg35
(lp2569
(iRuleNodes
ExprNode
p2570
(dp2571
g33
g2528
sg35
(lp2572
(iRuleNodes
NumberNode
p2573
(dp2574
g33
g2528
sg2532
I1
sg35
(lp2575
(iRuleNodes
IntNode
p2576
(dp2577
g33
g2536
sg35
(lp2578
sg37
g2573
sg47
I00
sg46
I01
sg62
S' '
sg64
I381
sg1421
I15
sg2538
S'300'
p2579
sg48
(lp2580
g2538
ag64
ag62
asg50
I185
sba(iRuleNodes
NullNode
p2581
(dp2582
g33
g244
sg35
(lp2583
sg37
g2573
sg46
I01
sg1421
I15
sg47
I00
sg48
(lp2584
sg50
I186
sba(iRuleNodes
NullNode
p2585
(dp2586
g33
g2547
sg35
(lp2587
sg37
g2573
sg46
I01
sg1421
I15
sg47
I00
sg48
(lp2588
sg50
I187
sba(iRuleNodes
NullNode
p2589
(dp2590
g33
g295
sg35
(lp2591
sg37
g2573
sg46
I01
sg1421
I15
sg47
I00
sg48
(lp2592
sg50
I188
sbasg37
g2570
sg2536
g2576
sg46
I01
sg2547
g2585
sg295
g2589
sg1421
I15
sg47
I00
sg48
(lp2593
sg244
g2581
sg50
I184
sg2555
Nsbasg2556
g278
sg37
g2566
sg2528
g2573
sg46
I01
sg2557
g278
sg1421
I15
sg47
I00
sg48
(lp2594
sg50
I183
sbasg2556
g278
sg37
g2514
sg2528
g2570
sg46
I01
sg1421
I15
sg47
I00
sg48
(lp2595
sg50
I182
sba(iRuleNodes
TokNode
p2596
(dp2597
g33
S'rsq'
p2598
sg35
(lp2599
sg37
g2514
sg46
I01
sg64
I384
sg62
S''
sg75
S']'
sg1421
I15
sg47
I00
sg48
(lp2600
g75
ag64
ag62
asg50
I189
sbasg37
g2493
sg2598
g2596
sg47
I00
sg46
I01
sg2568
g2566
sg2562
g2560
sg262
I01
sg2524
g2522
sg1421
I15
sg2519
g2517
sg48
(lp2601
sg268
(iM3Types
M3IntegerType
p2602
(dp2603
g17
I00
sg18
I00
sg19
I00
sg20
I00
sg21
I00
sg22
I00
sg23
I01
sg24
I01
sg280
I262
sg281
I00
sg282
I00
sg283
I00
sg284
I00
sg285
I00
sg286
I00
sg287
I30
sg288
I00
sg289
I00
sg290
I00
sg291
I00
sg292
I00
sg293
I00
sg294
I00
sg295
Nsg296
I01
sg297
I00
sg298
I00
sg299
I300
sg301
I00
sg302
I00
sg303
I00
sg304
I00
sg305
I30
sg306
I00
sg307
I01
sbsg50
I172
sbag2495
a(iRuleNodes
NullNode
p2604
(dp2605
g33
g273
sg35
(lp2606
sg37
g2493
sg46
I01
sg1421
I15
sg47
I00
sg48
(lp2607
sg50
I191
sbasg99
g2500
sg37
g2490
sg46
I01
sg256
g2514
sg272
g2510
sg273
g2604
sg1421
I15
sg47
I00
sg48
(lp2608
sg50
I168
sba(iRuleNodes
SepNode
p2609
(dp2610
g33
g1417
sg35
(lp2611
sg37
g2490
sg46
I01
sg64
I385
sg62
S''
sg75
S';'
sg1421
I15
sg47
I00
sg48
(lp2612
g75
ag64
ag62
asg50
I192
sbasg37
g2475
sg46
I01
sg1421
I15
sg47
I00
sg48
(lp2613
sg50
I167
sbsg46
I01
sg1819
(iRuleNodes
KeyWordNode
p2614
(dp2615
g33
g1819
sg35
(lp2616
sg37
g2475
sg46
I01
sg64
I163
sg62
S' '
sg75
g1821
sg1421
I7
sg47
I00
sg48
(lp2617
g75
ag64
ag62
asg50
I69
sbsg263
(iRuleNodes
KeyWordNode
p2618
(dp2619
g33
g263
sg35
(lp2620
sg37
g2475
sg46
I01
sg64
I136
sg62
S' '
sg75
g1463
sg1421
I6
sg47
I00
sg48
(lp2621
g75
ag64
ag62
asg50
I58
sbsg33
g256
sS'kwce'
p2622
(iRuleNodes
KeyWordNode
p2623
(dp2624
g33
g2622
sg35
(lp2625
sg37
g2475
sg46
I01
sg64
I354
sg62
S' (* mandatory, shows we have not forgotten *) %0A    '
p2626
sg75
g1469
sg1421
I14
sg47
I00
sg48
(lp2627
g75
ag64
ag62
asg50
I165
sbsg241
(iRuleNodes
SepNode
p2628
(dp2629
g33
g241
sg35
(lp2630
sg37
g2475
sg46
I01
sg64
I357
sg62
S''
sg75
S';'
sg1421
I14
sg47
I00
sg48
(lp2631
g75
ag64
ag62
asg50
I166
sbsg1421
I6
sg268
g2433
sS'kwel'
p2632
(iRuleNodes
KeyWordNode
p2633
(dp2634
g33
g2632
sg35
(lp2635
sg37
g2475
sg46
I01
sg64
I299
sg62
S'%0A    '
p2636
sg75
S'ELSE'
p2637
sg1421
I13
sg47
I00
sg48
(lp2638
g75
ag64
ag62
asg50
I163
sbsS'efields'
p2639
(iRuleNodes
FieldListNode
p2640
(dp2641
g33
g2639
sg35
(lp2642
sg37
g2475
sg46
I01
sg1421
I13
sg47
I00
sg48
(lp2643
sg50
I164
sbsg37
(iRuleNodes
TypeDeclNode
p2644
(dp2645
g33
g1417
sg35
(lp2646
(iRuleNodes
IdNode
p2647
(dp2648
g33
g257
sg35
(lp2649
sg37
g2644
sg46
I01
sg61
g2432
sg62
S'%0A  '
p2650
sg64
I126
sg1421
I6
sg47
I00
sg48
(lp2651
g61
ag64
ag62
asg50
I55
sba(iRuleNodes
OpNode
p2652
(dp2653
g33
g259
sg35
(lp2654
sg37
g2644
sg46
I01
sg64
I134
sg62
S' '
sg75
S'='
sg1421
I6
sg47
I00
sg48
(lp2655
g75
ag64
ag62
asg50
I56
sbag2475
asg37
(iRuleNodes
TypeDeclsListNode
p2656
(dp2657
g33
g252
sg35
(lp2658
(iRuleNodes
TypeDeclNode
p2659
(dp2660
g33
g1417
sg35
(lp2661
(iRuleNodes
IdNode
p2662
(dp2663
g33
g257
sg35
(lp2664
sg37
g2659
sg46
I01
sg61
g2409
sg62
S' %0A  '
p2665
sg64
I28
sg1421
I4
sg47
I00
sg48
(lp2666
g61
ag64
ag62
asg50
I11
sba(iRuleNodes
OpNode
p2667
(dp2668
g33
g259
sg35
(lp2669
sg37
g2659
sg46
I01
sg64
I31
sg62
S' '
sg75
S'='
sg1421
I4
sg47
I00
sg48
(lp2670
g75
ag64
ag62
asg50
I12
sba(iRuleNodes
EnumNode
p2671
(dp2672
g33
g256
sg35
(lp2673
(iRuleNodes
TokNode
p2674
(dp2675
g33
g1742
sg35
(lp2676
sg37
g2671
sg46
I01
sg64
I33
sg62
S' '
sg75
S'{'
sg1421
I4
sg47
I00
sg48
(lp2677
g75
ag64
ag62
asg50
I14
sba(iRuleNodes
IdListNode
p2678
(dp2679
g33
g99
sg35
(lp2680
(iRuleNodes
IdNode
p2681
(dp2682
g33
g1417
sg35
(lp2683
sg37
g2678
sg46
I01
sg61
g2413
sg62
S''
sg64
I34
sg1421
I4
sg47
I00
sg48
(lp2684
g61
ag64
ag62
asg50
I16
sba(iRuleNodes
SepNode
p2685
(dp2686
g33
g1417
sg35
(lp2687
sg37
g2678
sg46
I01
sg64
I37
sg62
S''
sg75
S','
sg1421
I4
sg47
I00
sg48
(lp2688
g75
ag64
ag62
asg50
I17
sba(iRuleNodes
IdNode
p2689
(dp2690
g33
g1417
sg35
(lp2691
sg37
g2678
sg46
I01
sg61
g2414
sg62
S' '
sg64
I39
sg1421
I4
sg47
I00
sg48
(lp2692
g61
ag64
ag62
asg50
I18
sba(iRuleNodes
SepNode
p2693
(dp2694
g33
g1417
sg35
(lp2695
sg37
g2678
sg46
I01
sg64
I44
sg62
S''
sg75
S','
sg1421
I4
sg47
I00
sg48
(lp2696
g75
ag64
ag62
asg50
I19
sba(iRuleNodes
IdNode
p2697
(dp2698
g33
g1417
sg35
(lp2699
sg37
g2678
sg46
I01
sg61
g2415
sg62
S' '
sg64
I46
sg1421
I4
sg47
I00
sg48
(lp2700
g61
ag64
ag62
asg50
I20
sbasg37
g2671
sg46
I01
sg1421
I4
sg47
I00
sg48
(lp2701
sg50
I15
sba(iRuleNodes
TokNode
p2702
(dp2703
g33
g1771
sg35
(lp2704
sg37
g2671
sg46
I01
sg64
I56
sg62
S''
sg75
S'}'
sg1421
I4
sg47
I00
sg48
(lp2705
g75
ag64
ag62
asg50
I21
sbasg1742
g2674
sg99
g2678
sg37
g2659
sg7
I20
sg46
I01
sg1771
g2702
sg262
I01
sg1421
I4
sg264
I01
sg47
I00
sg265
g266
sg48
(lp2706
sg268
g2410
sg50
I13
sbasg37
g2656
sg46
I01
sg256
g2671
sg257
g2662
sg1421
I4
sg47
I00
sg48
(lp2707
sg259
g2667
sg50
I10
sba(iRuleNodes
SepNode
p2708
(dp2709
g33
g1417
sg35
(lp2710
sg37
g2656
sg46
I01
sg64
I57
sg62
S''
sg75
S';'
sg1421
I4
sg47
I00
sg48
(lp2711
g75
ag64
ag62
asg50
I22
sba(iRuleNodes
TypeDeclNode
p2712
(dp2713
g33
g1417
sg35
(lp2714
(iRuleNodes
IdNode
p2715
(dp2716
g33
g257
sg35
(lp2717
sg37
g2712
sg46
I01
sg61
g2420
sg62
S'%0A  '
p2718
sg64
I61
sg1421
I5
sg47
I00
sg48
(lp2719
g61
ag64
ag62
asg50
I24
sba(iRuleNodes
OpNode
p2720
(dp2721
g33
g259
sg35
(lp2722
sg37
g2712
sg46
I01
sg64
I74
sg62
S' '
sg75
S'='
sg1421
I5
sg47
I00
sg48
(lp2723
g75
ag64
ag62
asg50
I25
sba(iRuleNodes
ScaledTypeNode
p2724
(dp2725
g33
g256
sg295
g2424
sg35
(lp2726
(iRuleNodes
KeyWordNode
p2727
(dp2728
g33
S'kws'
p2729
sg35
(lp2730
sg37
g2724
sg46
I01
sg64
I76
sg62
S' '
sg75
S'SCALED'
p2731
sg1421
I5
sg47
I00
sg48
(lp2732
g75
ag64
ag62
asg50
I27
sba(iRuleNodes
TypeNameNode
p2733
(dp2734
g33
S'tn'
p2735
sg81
(iRuleNodes
QualIdNode
p2736
(dp2737
g33
g81
sg35
(lp2738
(iRuleNodes
IdNode
p2739
(dp2740
g33
g1417
sg35
(lp2741
sg37
g2736
sg46
I01
sg61
S'INTEGER'
p2742
sg62
S' '
sg64
I83
sg1421
I5
sg47
I00
sg48
(lp2743
g61
ag64
ag62
asg50
I30
sbasg37
g2733
sg46
I01
sg1421
I5
sS'embeddedImplicitDerefs'
p2744
(lp2745
sg47
I00
sg48
(lp2746
sg50
I29
sbsg35
(lp2747
g2736
asg37
g2724
sg46
I01
sg1421
I5
sg47
I00
sg48
(lp2748
sg50
I28
sba(iRuleNodes
TokNode
p2749
(dp2750
g33
g2519
sg35
(lp2751
sg37
g2724
sg46
I01
sg64
I92
sg62
S'  '
p2752
sg75
S'{'
sg1421
I5
sg47
I00
sg48
(lp2753
g75
ag64
ag62
asg50
I31
sba(iRuleNodes
IdNode
p2754
(dp2755
g33
S'unit'
p2756
sg35
(lp2757
sg37
g2724
sg46
I01
sg61
S'g'
sg62
S''
sg64
I93
sg1421
I5
sg47
I00
sg48
(lp2758
g61
ag64
ag62
asg50
I32
sba(iRuleNodes
ScaleListNode
p2759
(dp2760
g33
S'scaleList'
p2761
sg35
(lp2762
(iRuleNodes
ScaleEltNode
p2763
(dp2764
g33
g1417
sg35
(lp2765
(iRuleNodes
OpNode
p2766
(dp2767
g33
S'tc1'
p2768
sg35
(lp2769
sg37
g2763
sg46
I01
sg64
I95
sg62
S' '
sg75
S'*'
sg1421
I5
sg47
I00
sg48
(lp2770
g75
ag64
ag62
asg50
I35
sba(iRuleNodes
NumberNode
p2771
(dp2772
g33
S'n'
sg2532
I1
sg35
(lp2773
(iRuleNodes
IntNode
p2774
(dp2775
g33
g2536
sg35
(lp2776
sg37
g2771
sg47
I00
sg46
I01
sg62
S' '
sg64
I97
sg1421
I5
sg2538
S'1000'
p2777
sg48
(lp2778
g2538
ag64
ag62
asg50
I37
sba(iRuleNodes
NullNode
p2779
(dp2780
g33
g244
sg35
(lp2781
sg37
g2771
sg46
I01
sg1421
I5
sg47
I00
sg48
(lp2782
sg50
I38
sba(iRuleNodes
NullNode
p2783
(dp2784
g33
g2547
sg35
(lp2785
sg37
g2771
sg46
I01
sg1421
I5
sg47
I00
sg48
(lp2786
sg50
I39
sba(iRuleNodes
NullNode
p2787
(dp2788
g33
g295
sg35
(lp2789
sg37
g2771
sg46
I01
sg1421
I5
sg47
I00
sg48
(lp2790
sg50
I40
sbasg37
g2763
sg2536
g2774
sg46
I01
sg2547
g2783
sg295
g2787
sg1421
I5
sg47
I00
sg48
(lp2791
sg244
g2779
sg50
I36
sg2555
Nsba(iRuleNodes
OpNode
p2792
(dp2793
g33
S'tc2'
p2794
sg35
(lp2795
sg37
g2763
sg46
I01
sg64
I102
sg62
S' '
sg75
S'='
sg1421
I5
sg47
I00
sg48
(lp2796
g75
ag64
ag62
asg50
I41
sba(iRuleNodes
IdNode
p2797
(dp2798
g33
S'i'
sg35
(lp2799
sg37
g2763
sg46
I01
sg61
g2427
sg62
S' '
sg64
I104
sg1421
I5
sg47
I00
sg48
(lp2800
g61
ag64
ag62
asg50
I42
sbasg37
g2759
sS'i'
g2797
sg46
I01
sg2794
g2792
sg2768
g2766
sg1421
I5
sg47
I00
sg48
(lp2801
sS'n'
g2771
sg50
I34
sba(iRuleNodes
ScaleEltNode
p2802
(dp2803
g33
g1417
sg35
(lp2804
(iRuleNodes
OpNode
p2805
(dp2806
g33
g2768
sg35
(lp2807
sg37
g2802
sg46
I01
sg64
I107
sg62
S' '
sg75
S'*'
sg1421
I5
sg47
I00
sg48
(lp2808
g75
ag64
ag62
asg50
I44
sba(iRuleNodes
NumberNode
p2809
(dp2810
g33
S'n'
sg2532
I1
sg35
(lp2811
(iRuleNodes
IntNode
p2812
(dp2813
g33
g2536
sg35
(lp2814
sg37
g2809
sg47
I00
sg46
I01
sg62
S' '
sg64
I109
sg1421
I5
sg2538
S'1000'
p2815
sg48
(lp2816
g2538
ag64
ag62
asg50
I46
sba(iRuleNodes
NullNode
p2817
(dp2818
g33
g244
sg35
(lp2819
sg37
g2809
sg46
I01
sg1421
I5
sg47
I00
sg48
(lp2820
sg50
I47
sba(iRuleNodes
NullNode
p2821
(dp2822
g33
g2547
sg35
(lp2823
sg37
g2809
sg46
I01
sg1421
I5
sg47
I00
sg48
(lp2824
sg50
I48
sba(iRuleNodes
NullNode
p2825
(dp2826
g33
g295
sg35
(lp2827
sg37
g2809
sg46
I01
sg1421
I5
sg47
I00
sg48
(lp2828
sg50
I49
sbasg37
g2802
sg2536
g2812
sg46
I01
sg2547
g2821
sg295
g2825
sg1421
I5
sg47
I00
sg48
(lp2829
sg244
g2817
sg50
I45
sg2555
Nsba(iRuleNodes
OpNode
p2830
(dp2831
g33
g2794
sg35
(lp2832
sg37
g2802
sg46
I01
sg64
I114
sg62
S' '
sg75
S'='
sg1421
I5
sg47
I00
sg48
(lp2833
g75
ag64
ag62
asg50
I50
sba(iRuleNodes
IdNode
p2834
(dp2835
g33
S'i'
sg35
(lp2836
sg37
g2802
sg46
I01
sg61
g2425
sg62
S' '
sg64
I116
sg1421
I5
sg47
I00
sg48
(lp2837
g61
ag64
ag62
asg50
I51
sbasg37
g2759
sS'i'
g2834
sg46
I01
sg2794
g2830
sg2768
g2805
sg1421
I5
sg47
I00
sg48
(lp2838
sS'n'
g2809
sg50
I43
sbasg37
g2724
sg46
I01
sg1421
I5
sg47
I00
sg48
(lp2839
sg50
I33
sba(iRuleNodes
TokNode
p2840
(dp2841
g33
g2598
sg35
(lp2842
sg37
g2724
sg46
I01
sg64
I121
sg62
S''
sg75
S'}'
sg1421
I5
sg47
I00
sg48
(lp2843
g75
ag64
ag62
asg50
I52
sbasg37
g2712
sg47
I00
sg262
I01
sg46
I01
sg7
I21
sg2598
g2840
sg2735
g2733
sg2729
g2727
sg2761
g2759
sg1421
I5
sg264
I01
sg2519
g2749
sg265
g266
sg48
(lp2844
sg268
g2421
sg50
I26
sg2756
g2754
sbasg37
g2656
sg46
I01
sg256
g2724
sg257
g2715
sg1421
I5
sg47
I00
sg48
(lp2845
sg259
g2720
sg50
I23
sba(iRuleNodes
SepNode
p2846
(dp2847
g33
g1417
sg35
(lp2848
sg37
g2656
sg46
I01
sg64
I122
sg62
S''
sg75
S';'
sg1421
I5
sg47
I00
sg48
(lp2849
g75
ag64
ag62
asg50
I53
sbag2644
a(iRuleNodes
SepNode
p2850
(dp2851
g33
g1417
sg35
(lp2852
sg37
g2656
sg46
I01
sg64
I392
sg62
S''
sg75
S';'
sg1421
I16
sg47
I00
sg48
(lp2853
g75
ag64
ag62
asg50
I194
sbasg37
(iRuleNodes
TypeDeclsNode
p2854
(dp2855
g33
g1417
sg35
(lp2856
(iRuleNodes
KeyWordNode
p2857
(dp2858
g33
g253
sg35
(lp2859
sg37
g2854
sg46
I01
sg64
I20
sg62
S'%0A%0A'
p2860
sg75
g12
sg1421
I3
sg47
I00
sg48
(lp2861
g75
ag64
ag62
asg50
I8
sbag2656
asg37
(iRuleNodes
InterfaceDeclListNode
p2862
(dp2863
g33
g247
sg35
(lp2864
g2854
a(iRuleNodes
VariableDeclsNode
p2865
(dp2866
g33
g1417
sg35
(lp2867
(iRuleNodes
KeyWordNode
p2868
(dp2869
g33
S'kwv'
p2870
sg35
(lp2871
sg37
g2865
sg46
I01
sg64
I395
sg62
S'%0A%0A'
p2872
sg75
g1559
sg1421
I18
sg47
I00
sg48
(lp2873
g75
ag64
ag62
asg50
I196
sba(iRuleNodes
VariableDeclsListNode
p2874
(dp2875
g33
S'variables'
p2876
sg35
(lp2877
(iRuleNodes
VariableDeclNode
p2878
(dp2879
g33
g1417
sg41
(iRuleNodes
TokNode
p2880
(dp2881
g33
g41
sg35
(lp2882
sg37
g2878
sg46
I01
sg64
I409
sg62
S'   '
p2883
sg75
S':='
p2884
sg1421
I19
sg47
I00
sg48
(lp2885
g75
ag64
ag62
asg50
I203
sbsg35
(lp2886
(iRuleNodes
IdListNode
p2887
(dp2888
g33
g99
sg35
(lp2889
(iRuleNodes
IdNode
p2890
(dp2891
g33
g1417
sg35
(lp2892
sg37
g2887
sg46
I01
sg61
S'myCar'
p2893
sg62
S'%0A  '
p2894
sg64
I401
sg1421
I19
sg47
I00
sg48
(lp2895
g61
ag64
ag62
asg50
I200
sbasg37
g2878
sg46
I01
sg1421
I19
sg47
I00
sg48
(lp2896
sg50
I199
sba(iRuleNodes
NullNode
p2897
(dp2898
g33
g272
sg35
(lp2899
sg37
g2878
sg46
I01
sg1421
I19
sg47
I00
sg48
(lp2900
sg50
I201
sba(iRuleNodes
NullNode
p2901
(dp2902
g33
g256
sg35
(lp2903
sg37
g2878
sg46
I01
sg1421
I19
sg47
I00
sg48
(lp2904
sg50
I202
sbag2880
a(iRuleNodes
ExprNode
p2905
(dp2906
g33
g2528
sg35
(lp2907
(iRuleNodes
ConstructorNode
p2908
(dp2909
g33
g2528
sg35
(lp2910
(iRuleNodes
TypeNameNode
p2911
(dp2912
g33
g256
sg81
(iRuleNodes
QualIdNode
p2913
(dp2914
g33
g81
sg35
(lp2915
(iRuleNodes
IdNode
p2916
(dp2917
g33
g1417
sg35
(lp2918
sg37
g2913
sg46
I01
sg61
S'vehicle'
p2919
sg62
S' '
sg64
I412
sg1421
I19
sg47
I00
sg48
(lp2920
g61
ag64
ag62
asg50
I208
sbasg37
g2911
sg46
I01
sg1421
I19
sg2744
(lp2921
sg47
I00
sg48
(lp2922
sg50
I207
sbsg35
(lp2923
g2913
asg37
g2908
sg46
I01
sg1421
I19
sg47
I00
sg48
(lp2924
sg50
I206
sba(iRuleNodes
TokNode
p2925
(dp2926
g33
g1742
sg35
(lp2927
sg37
g2908
sg46
I01
sg64
I419
sg62
S''
sg75
S'{'
sg1421
I19
sg47
I00
sg48
(lp2928
g75
ag64
ag62
asg50
I209
sba(iRuleNodes
ConsEltListNode
p2929
(dp2930
g33
S'consEltList'
p2931
sg35
(lp2932
(iRuleNodes
ConsEltExprNode
p2933
(dp2934
g33
g1417
sg35
(lp2935
(iRuleNodes
ExprNode
p2936
(dp2937
g33
g2528
sg35
(lp2938
(iRuleNodes
TypeNameNode
p2939
(dp2940
g33
g2528
sg81
(iRuleNodes
QualIdNode
p2941
(dp2942
g33
g81
sg35
(lp2943
(iRuleNodes
IdNode
p2944
(dp2945
g33
g1417
sg35
(lp2946
sg37
g2941
sg46
I01
sg61
S'vk'
p2947
sg62
S''
sg64
I420
sg1421
I19
sg47
I00
sg48
(lp2948
g61
ag64
ag62
asg50
I215
sba(iRuleNodes
SepNode
p2949
(dp2950
g33
g1417
sg35
(lp2951
sg37
g2941
sg46
I01
sg64
I422
sg62
S''
sg75
S'.'
sg1421
I19
sg47
I00
sg48
(lp2952
g75
ag64
ag62
asg50
I216
sba(iRuleNodes
IdNode
p2953
(dp2954
g33
g1417
sg35
(lp2955
sg37
g2941
sg46
I01
sg61
S'car'
p2956
sg62
S''
sg64
I423
sg1421
I19
sg47
I00
sg48
(lp2957
g61
ag64
ag62
asg50
I217
sbasg37
g2939
sg46
I01
sg1421
I19
sg2744
(lp2958
sg47
I00
sg48
(lp2959
sg50
I214
sbsg35
(lp2960
g2941
asg37
g2936
sg46
I01
sg1421
I19
sg47
I00
sg48
(lp2961
sg50
I213
sbasg2556
g2410
sg37
g2933
sg2528
g2939
sg46
I01
sg2557
g2410
sg1421
I19
sg47
I00
sg48
(lp2962
sg50
I212
sbasg37
g2929
sg2528
g2936
sg46
I01
sg1421
I19
sg47
I00
sg48
(lp2963
sg50
I211
sba(iRuleNodes
SepNode
p2964
(dp2965
g33
g1417
sg35
(lp2966
sg37
g2929
sg46
I01
sg64
I426
sg62
S''
sg75
S','
sg1421
I19
sg47
I00
sg48
(lp2967
g75
ag64
ag62
asg50
I218
sba(iRuleNodes
ConsEltAssNode
p2968
(dp2969
g33
g1417
sg41
(iRuleNodes
TokNode
p2970
(dp2971
g33
g41
sg35
(lp2972
sg37
g2968
sg46
I01
sg64
I434
sg62
S' '
sg75
g2884
sg1421
I19
sg47
I00
sg48
(lp2973
g75
ag64
ag62
asg50
I221
sbsg35
(lp2974
(iRuleNodes
IdNode
p2975
(dp2976
g33
g257
sg35
(lp2977
sg37
g2968
sg46
I01
sg61
S'doors'
p2978
sg62
S' '
sg64
I428
sg1421
I19
sg47
I00
sg48
(lp2979
g61
ag64
ag62
asg50
I220
sbag2970
a(iRuleNodes
ExprNode
p2980
(dp2981
g33
g2528
sg35
(lp2982
(iRuleNodes
NumberNode
p2983
(dp2984
g33
g2528
sg2532
I1
sg35
(lp2985
(iRuleNodes
IntNode
p2986
(dp2987
g33
g2536
sg35
(lp2988
sg37
g2983
sg47
I00
sg46
I01
sg62
S' '
sg64
I437
sg1421
I19
sg2538
S'3'
sg48
(lp2989
g2538
ag64
ag62
asg50
I224
sba(iRuleNodes
NullNode
p2990
(dp2991
g33
g244
sg35
(lp2992
sg37
g2983
sg46
I01
sg1421
I19
sg47
I00
sg48
(lp2993
sg50
I225
sba(iRuleNodes
NullNode
p2994
(dp2995
g33
g2547
sg35
(lp2996
sg37
g2983
sg46
I01
sg1421
I19
sg47
I00
sg48
(lp2997
sg50
I226
sba(iRuleNodes
NullNode
p2998
(dp2999
g33
g295
sg35
(lp3000
sg37
g2983
sg46
I01
sg1421
I19
sg47
I00
sg48
(lp3001
sg50
I227
sbasg37
g2980
sg2536
g2986
sg46
I01
sg2547
g2994
sg295
g2998
sg1421
I19
sg47
I00
sg48
(lp3002
sg244
g2990
sg50
I223
sg2555
Nsbasg2556
g278
sg37
g2968
sg2528
g2983
sg46
I01
sg2557
g278
sg1421
I19
sg47
I00
sg48
(lp3003
sg50
I222
sbasg37
g2929
sg2528
g2980
sg46
I01
sg257
g2975
sg1421
I19
sg47
I00
sg48
(lp3004
sg50
I219
sba(iRuleNodes
SepNode
p3005
(dp3006
g33
g1417
sg35
(lp3007
sg37
g2929
sg46
I01
sg64
I438
sg62
S''
sg75
S','
sg1421
I19
sg47
I00
sg48
(lp3008
g75
ag64
ag62
asg50
I228
sba(iRuleNodes
ConsEltAssNode
p3009
(dp3010
g33
g1417
sg41
(iRuleNodes
TokNode
p3011
(dp3012
g33
g41
sg35
(lp3013
sg37
g3009
sg46
I01
sg64
I449
sg62
S' '
sg75
g2884
sg1421
I19
sg47
I00
sg48
(lp3014
g75
ag64
ag62
asg50
I231
sbsg35
(lp3015
(iRuleNodes
IdNode
p3016
(dp3017
g33
g257
sg35
(lp3018
sg37
g3009
sg46
I01
sg61
S'topSpeed'
p3019
sg62
S' '
sg64
I440
sg1421
I19
sg47
I00
sg48
(lp3020
g61
ag64
ag62
asg50
I230
sbag3011
a(iRuleNodes
ExprNode
p3021
(dp3022
g33
g2528
sg35
(lp3023
(iRuleNodes
NumberNode
p3024
(dp3025
g33
g2528
sg2532
I1
sg35
(lp3026
(iRuleNodes
IntNode
p3027
(dp3028
g33
g2536
sg35
(lp3029
sg37
g3024
sg47
I00
sg46
I01
sg62
S' '
sg64
I452
sg1421
I19
sg2538
S'210'
p3030
sg48
(lp3031
g2538
ag64
ag62
asg50
I234
sba(iRuleNodes
NullNode
p3032
(dp3033
g33
g244
sg35
(lp3034
sg37
g3024
sg46
I01
sg1421
I19
sg47
I00
sg48
(lp3035
sg50
I235
sba(iRuleNodes
NullNode
p3036
(dp3037
g33
g2547
sg35
(lp3038
sg37
g3024
sg46
I01
sg1421
I19
sg47
I00
sg48
(lp3039
sg50
I236
sba(iRuleNodes
NullNode
p3040
(dp3041
g33
g295
sg35
(lp3042
sg37
g3024
sg46
I01
sg1421
I19
sg47
I00
sg48
(lp3043
sg50
I237
sbasg37
g3021
sg2536
g3027
sg46
I01
sg2547
g3036
sg295
g3040
sg1421
I19
sg47
I00
sg48
(lp3044
sg244
g3032
sg50
I233
sg2555
Nsbasg2556
g278
sg37
g3009
sg2528
g3024
sg46
I01
sg2557
g278
sg1421
I19
sg47
I00
sg48
(lp3045
sg50
I232
sbasg37
g2929
sg2528
g3021
sg46
I01
sg257
g3016
sg1421
I19
sg47
I00
sg48
(lp3046
sg50
I229
sbasg37
g2908
sg46
I01
sg1421
I19
sg47
I00
sg48
(lp3047
sg50
I210
sba(iRuleNodes
TokNode
p3048
(dp3049
g33
g1771
sg35
(lp3050
sg37
g2908
sg46
I01
sg64
I455
sg62
S''
sg75
S'}'
sg1421
I19
sg47
I00
sg48
(lp3051
g75
ag64
ag62
asg50
I238
sbasg1742
g2925
sg37
g2905
sg46
I01
sg256
g2911
sg1771
g3048
sg2931
g2929
sg1421
I19
sg47
I00
sg48
(lp3052
sg50
I205
sbasg2556
g2433
sg37
g2878
sg2528
g2908
sg46
I01
sg2557
g2433
sg1421
I19
sg47
I00
sg48
(lp3053
sg50
I204
sbasg99
g2887
sg37
g2874
sg2528
g2905
sg46
I01
sg256
g2901
sg272
g2897
sS'vartype'
p3054
g2433
sg1421
I19
sg47
I00
sg48
(lp3055
sg50
I198
sba(iRuleNodes
SepNode
p3056
(dp3057
g33
g1417
sg35
(lp3058
sg37
g2874
sg46
I01
sg64
I456
sg62
S''
sg75
S';'
sg1421
I19
sg47
I00
sg48
(lp3059
g75
ag64
ag62
asg50
I239
sba(iRuleNodes
VariableDeclNode
p3060
(dp3061
g33
g1417
sg41
(iRuleNodes
TokNode
p3062
(dp3063
g33
g41
sg35
(lp3064
sg37
g3060
sg46
I01
sg64
I468
sg62
S' '
sg75
g2884
sg1421
I20
sg47
I00
sg48
(lp3065
g75
ag64
ag62
asg50
I245
sbsg35
(lp3066
(iRuleNodes
IdListNode
p3067
(dp3068
g33
g99
sg35
(lp3069
(iRuleNodes
IdNode
p3070
(dp3071
g33
g1417
sg35
(lp3072
sg37
g3067
sg46
I01
sg61
S'myTruck'
p3073
sg62
S'%0A  '
p3074
sg64
I460
sg1421
I20
sg47
I00
sg48
(lp3075
g61
ag64
ag62
asg50
I242
sbasg37
g3060
sg46
I01
sg1421
I20
sg47
I00
sg48
(lp3076
sg50
I241
sba(iRuleNodes
NullNode
p3077
(dp3078
g33
g272
sg35
(lp3079
sg37
g3060
sg46
I01
sg1421
I20
sg47
I00
sg48
(lp3080
sg50
I243
sba(iRuleNodes
NullNode
p3081
(dp3082
g33
g256
sg35
(lp3083
sg37
g3060
sg46
I01
sg1421
I20
sg47
I00
sg48
(lp3084
sg50
I244
sbag3062
a(iRuleNodes
ExprNode
p3085
(dp3086
g33
g2528
sg35
(lp3087
(iRuleNodes
ConstructorNode
p3088
(dp3089
g33
g2528
sg35
(lp3090
(iRuleNodes
TypeNameNode
p3091
(dp3092
g33
g256
sg81
(iRuleNodes
QualIdNode
p3093
(dp3094
g33
g81
sg35
(lp3095
(iRuleNodes
IdNode
p3096
(dp3097
g33
g1417
sg35
(lp3098
sg37
g3093
sg46
I01
sg61
S'vehicle'
p3099
sg62
S' '
sg64
I471
sg1421
I20
sg47
I00
sg48
(lp3100
g61
ag64
ag62
asg50
I250
sbasg37
g3091
sg46
I01
sg1421
I20
sg2744
(lp3101
sg47
I00
sg48
(lp3102
sg50
I249
sbsg35
(lp3103
g3093
asg37
g3088
sg46
I01
sg1421
I20
sg47
I00
sg48
(lp3104
sg50
I248
sba(iRuleNodes
TokNode
p3105
(dp3106
g33
g1742
sg35
(lp3107
sg37
g3088
sg46
I01
sg64
I478
sg62
S''
sg75
S'{'
sg1421
I20
sg47
I00
sg48
(lp3108
g75
ag64
ag62
asg50
I251
sba(iRuleNodes
ConsEltListNode
p3109
(dp3110
g33
g2931
sg35
(lp3111
(iRuleNodes
ConsEltExprNode
p3112
(dp3113
g33
g1417
sg35
(lp3114
(iRuleNodes
ExprNode
p3115
(dp3116
g33
g2528
sg35
(lp3117
(iRuleNodes
TypeNameNode
p3118
(dp3119
g33
g2528
sg81
(iRuleNodes
QualIdNode
p3120
(dp3121
g33
g81
sg35
(lp3122
(iRuleNodes
IdNode
p3123
(dp3124
g33
g1417
sg35
(lp3125
sg37
g3120
sg46
I01
sg61
S'vk'
p3126
sg62
S''
sg64
I479
sg1421
I20
sg47
I00
sg48
(lp3127
g61
ag64
ag62
asg50
I257
sba(iRuleNodes
SepNode
p3128
(dp3129
g33
g1417
sg35
(lp3130
sg37
g3120
sg46
I01
sg64
I481
sg62
S''
sg75
S'.'
sg1421
I20
sg47
I00
sg48
(lp3131
g75
ag64
ag62
asg50
I258
sba(iRuleNodes
IdNode
p3132
(dp3133
g33
g1417
sg35
(lp3134
sg37
g3120
sg46
I01
sg61
S'truck'
p3135
sg62
S''
sg64
I482
sg1421
I20
sg47
I00
sg48
(lp3136
g61
ag64
ag62
asg50
I259
sbasg37
g3118
sg46
I01
sg1421
I20
sg2744
(lp3137
sg47
I00
sg48
(lp3138
sg50
I256
sbsg35
(lp3139
g3120
asg37
g3115
sg46
I01
sg1421
I20
sg47
I00
sg48
(lp3140
sg50
I255
sbasg2556
g2410
sg37
g3112
sg2528
g3118
sg46
I01
sg2557
g2410
sg1421
I20
sg47
I00
sg48
(lp3141
sg50
I254
sbasg37
g3109
sg2528
g3115
sg46
I01
sg1421
I20
sg47
I00
sg48
(lp3142
sg50
I253
sba(iRuleNodes
SepNode
p3143
(dp3144
g33
g1417
sg35
(lp3145
sg37
g3109
sg46
I01
sg64
I487
sg62
S''
sg75
S','
sg1421
I20
sg47
I00
sg48
(lp3146
g75
ag64
ag62
asg50
I260
sba(iRuleNodes
ConsEltAssNode
p3147
(dp3148
g33
g1417
sg41
(iRuleNodes
TokNode
p3149
(dp3150
g33
g41
sg35
(lp3151
sg37
g3147
sg46
I01
sg64
I496
sg62
S' '
sg75
g2884
sg1421
I20
sg47
I00
sg48
(lp3152
g75
ag64
ag62
asg50
I263
sbsg35
(lp3153
(iRuleNodes
IdNode
p3154
(dp3155
g33
g257
sg35
(lp3156
sg37
g3147
sg46
I01
sg61
S'weight'
p3157
sg62
S' '
sg64
I489
sg1421
I20
sg47
I00
sg48
(lp3158
g61
ag64
ag62
asg50
I262
sbag3149
a(iRuleNodes
ExprNode
p3159
(dp3160
g33
g2528
sg35
(lp3161
(iRuleNodes
NumberNode
p3162
(dp3163
g33
g2528
sg2532
I1000000
sg35
(lp3164
(iRuleNodes
IntNode
p3165
(dp3166
g33
g2536
sg35
(lp3167
sg37
g3162
sg47
I00
sg46
I01
sg62
S' '
sg64
I499
sg1421
I20
sg2538
S'5'
sg48
(lp3168
g2538
ag64
ag62
asg50
I266
sba(iRuleNodes
NullNode
p3169
(dp3170
g33
g244
sg35
(lp3171
sg37
g3162
sg46
I01
sg1421
I20
sg47
I00
sg48
(lp3172
sg50
I267
sba(iRuleNodes
NullNode
p3173
(dp3174
g33
g2547
sg35
(lp3175
sg37
g3162
sg46
I01
sg1421
I20
sg47
I00
sg48
(lp3176
sg50
I268
sba(iRuleNodes
IdNode
p3177
(dp3178
g33
g295
sg35
(lp3179
sg37
g3162
sg46
I01
sg61
S'tonne'
p3180
sg62
S' '
sg64
I501
sg1421
I20
sg47
I00
sg48
(lp3181
g61
ag64
ag62
asg50
I269
sbasg37
g3159
sg2536
g3165
sg46
I01
sg2547
g3173
sg295
g3177
sg1421
I20
sg47
I00
sg48
(lp3182
sg244
g3169
sg50
I265
sg2555
g2421
sbasg2556
g2421
sg37
g3147
sg2528
g3162
sg46
I01
sg2557
g2421
sg1421
I20
sg47
I00
sg48
(lp3183
sg50
I264
sbasg37
g3109
sg2528
g3159
sg46
I01
sg257
g3154
sg1421
I20
sg47
I00
sg48
(lp3184
sg50
I261
sbasg37
g3088
sg46
I01
sg1421
I20
sg47
I00
sg48
(lp3185
sg50
I252
sba(iRuleNodes
TokNode
p3186
(dp3187
g33
g1771
sg35
(lp3188
sg37
g3088
sg46
I01
sg64
I506
sg62
S''
sg75
S'}'
sg1421
I20
sg47
I00
sg48
(lp3189
g75
ag64
ag62
asg50
I270
sbasg1742
g3105
sg37
g3085
sg46
I01
sg256
g3091
sg1771
g3186
sg2931
g3109
sg1421
I20
sg47
I00
sg48
(lp3190
sg50
I247
sbasg2556
g2433
sg37
g3060
sg2528
g3088
sg46
I01
sg2557
g2433
sg1421
I20
sg47
I00
sg48
(lp3191
sg50
I246
sbasg99
g3067
sg37
g2874
sg2528
g3085
sg46
I01
sg256
g3081
sg272
g3077
sg3054
g2433
sg1421
I20
sg47
I00
sg48
(lp3192
sg50
I240
sba(iRuleNodes
SepNode
p3193
(dp3194
g33
g1417
sg35
(lp3195
sg37
g2874
sg46
I01
sg64
I507
sg62
S''
sg75
S';'
sg1421
I20
sg47
I00
sg48
(lp3196
g75
ag64
ag62
asg50
I271
sba(iRuleNodes
VariableDeclNode
p3197
(dp3198
g33
g1417
sg41
(iRuleNodes
TokNode
p3199
(dp3200
g33
g41
sg35
(lp3201
sg37
g3197
sg46
I01
sg64
I520
sg62
S'  '
p3202
sg75
g2884
sg1421
I21
sg47
I00
sg48
(lp3203
g75
ag64
ag62
asg50
I277
sbsg35
(lp3204
(iRuleNodes
IdListNode
p3205
(dp3206
g33
g99
sg35
(lp3207
(iRuleNodes
IdNode
p3208
(dp3209
g33
g1417
sg35
(lp3210
sg37
g3205
sg46
I01
sg61
S'myBike'
p3211
sg62
S' %0A  '
p3212
sg64
I512
sg1421
I21
sg47
I00
sg48
(lp3213
g61
ag64
ag62
asg50
I274
sbasg37
g3197
sg46
I01
sg1421
I21
sg47
I00
sg48
(lp3214
sg50
I273
sba(iRuleNodes
NullNode
p3215
(dp3216
g33
g272
sg35
(lp3217
sg37
g3197
sg46
I01
sg1421
I21
sg47
I00
sg48
(lp3218
sg50
I275
sba(iRuleNodes
NullNode
p3219
(dp3220
g33
g256
sg35
(lp3221
sg37
g3197
sg46
I01
sg1421
I21
sg47
I00
sg48
(lp3222
sg50
I276
sbag3199
a(iRuleNodes
ExprNode
p3223
(dp3224
g33
g2528
sg35
(lp3225
(iRuleNodes
ConstructorNode
p3226
(dp3227
g33
g2528
sg35
(lp3228
(iRuleNodes
TypeNameNode
p3229
(dp3230
g33
g256
sg81
(iRuleNodes
QualIdNode
p3231
(dp3232
g33
g81
sg35
(lp3233
(iRuleNodes
IdNode
p3234
(dp3235
g33
g1417
sg35
(lp3236
sg37
g3231
sg46
I01
sg61
S'vehicle'
p3237
sg62
S' '
sg64
I523
sg1421
I21
sg47
I00
sg48
(lp3238
g61
ag64
ag62
asg50
I282
sbasg37
g3229
sg46
I01
sg1421
I21
sg2744
(lp3239
sg47
I00
sg48
(lp3240
sg50
I281
sbsg35
(lp3241
g3231
asg37
g3226
sg46
I01
sg1421
I21
sg47
I00
sg48
(lp3242
sg50
I280
sba(iRuleNodes
TokNode
p3243
(dp3244
g33
g1742
sg35
(lp3245
sg37
g3226
sg46
I01
sg64
I530
sg62
S''
sg75
S'{'
sg1421
I21
sg47
I00
sg48
(lp3246
g75
ag64
ag62
asg50
I283
sba(iRuleNodes
ConsEltListNode
p3247
(dp3248
g33
g2931
sg35
(lp3249
(iRuleNodes
ConsEltExprNode
p3250
(dp3251
g33
g1417
sg35
(lp3252
(iRuleNodes
ExprNode
p3253
(dp3254
g33
g2528
sg35
(lp3255
(iRuleNodes
TypeNameNode
p3256
(dp3257
g33
g2528
sg81
(iRuleNodes
QualIdNode
p3258
(dp3259
g33
g81
sg35
(lp3260
(iRuleNodes
IdNode
p3261
(dp3262
g33
g1417
sg35
(lp3263
sg37
g3258
sg46
I01
sg61
S'vk'
p3264
sg62
S''
sg64
I531
sg1421
I21
sg47
I00
sg48
(lp3265
g61
ag64
ag62
asg50
I289
sba(iRuleNodes
SepNode
p3266
(dp3267
g33
g1417
sg35
(lp3268
sg37
g3258
sg46
I01
sg64
I533
sg62
S''
sg75
S'.'
sg1421
I21
sg47
I00
sg48
(lp3269
g75
ag64
ag62
asg50
I290
sba(iRuleNodes
IdNode
p3270
(dp3271
g33
g1417
sg35
(lp3272
sg37
g3258
sg46
I01
sg61
S'motorcycle'
p3273
sg62
S''
sg64
I534
sg1421
I21
sg47
I00
sg48
(lp3274
g61
ag64
ag62
asg50
I291
sbasg37
g3256
sg46
I01
sg1421
I21
sg2744
(lp3275
sg47
I00
sg48
(lp3276
sg50
I288
sbsg35
(lp3277
g3258
asg37
g3253
sg46
I01
sg1421
I21
sg47
I00
sg48
(lp3278
sg50
I287
sbasg2556
g2410
sg37
g3250
sg2528
g3256
sg46
I01
sg2557
g2410
sg1421
I21
sg47
I00
sg48
(lp3279
sg50
I286
sbasg37
g3247
sg2528
g3253
sg46
I01
sg1421
I21
sg47
I00
sg48
(lp3280
sg50
I285
sba(iRuleNodes
SepNode
p3281
(dp3282
g33
g1417
sg35
(lp3283
sg37
g3247
sg46
I01
sg64
I544
sg62
S''
sg75
S','
sg1421
I21
sg47
I00
sg48
(lp3284
g75
ag64
ag62
asg50
I292
sba(iRuleNodes
ConsEltAssNode
p3285
(dp3286
g33
g1417
sg41
(iRuleNodes
TokNode
p3287
(dp3288
g33
g41
sg35
(lp3289
sg37
g3285
sg46
I01
sg64
I555
sg62
S' '
sg75
g2884
sg1421
I21
sg47
I00
sg48
(lp3290
g75
ag64
ag62
asg50
I295
sbsg35
(lp3291
(iRuleNodes
IdNode
p3292
(dp3293
g33
g257
sg35
(lp3294
sg37
g3285
sg46
I01
sg61
S'topSpeed'
p3295
sg62
S' '
sg64
I546
sg1421
I21
sg47
I00
sg48
(lp3296
g61
ag64
ag62
asg50
I294
sbag3287
a(iRuleNodes
ExprNode
p3297
(dp3298
g33
g2528
sg35
(lp3299
(iRuleNodes
NumberNode
p3300
(dp3301
g33
g2528
sg2532
I1
sg35
(lp3302
(iRuleNodes
IntNode
p3303
(dp3304
g33
g2536
sg35
(lp3305
sg37
g3300
sg47
I00
sg46
I01
sg62
S' '
sg64
I558
sg1421
I21
sg2538
S'200'
p3306
sg48
(lp3307
g2538
ag64
ag62
asg50
I298
sba(iRuleNodes
NullNode
p3308
(dp3309
g33
g244
sg35
(lp3310
sg37
g3300
sg46
I01
sg1421
I21
sg47
I00
sg48
(lp3311
sg50
I299
sba(iRuleNodes
NullNode
p3312
(dp3313
g33
g2547
sg35
(lp3314
sg37
g3300
sg46
I01
sg1421
I21
sg47
I00
sg48
(lp3315
sg50
I300
sba(iRuleNodes
NullNode
p3316
(dp3317
g33
g295
sg35
(lp3318
sg37
g3300
sg46
I01
sg1421
I21
sg47
I00
sg48
(lp3319
sg50
I301
sbasg37
g3297
sg2536
g3303
sg46
I01
sg2547
g3312
sg295
g3316
sg1421
I21
sg47
I00
sg48
(lp3320
sg244
g3308
sg50
I297
sg2555
Nsbasg2556
g278
sg37
g3285
sg2528
g3300
sg46
I01
sg2557
g278
sg1421
I21
sg47
I00
sg48
(lp3321
sg50
I296
sbasg37
g3247
sg2528
g3297
sg46
I01
sg257
g3292
sg1421
I21
sg47
I00
sg48
(lp3322
sg50
I293
sbasg37
g3226
sg46
I01
sg1421
I21
sg47
I00
sg48
(lp3323
sg50
I284
sba(iRuleNodes
TokNode
p3324
(dp3325
g33
g1771
sg35
(lp3326
sg37
g3226
sg46
I01
sg64
I561
sg62
S''
sg75
S'}'
sg1421
I21
sg47
I00
sg48
(lp3327
g75
ag64
ag62
asg50
I302
sbasg1742
g3243
sg37
g3223
sg46
I01
sg256
g3229
sg1771
g3324
sg2931
g3247
sg1421
I21
sg47
I00
sg48
(lp3328
sg50
I279
sbasg2556
g2433
sg37
g3197
sg2528
g3226
sg46
I01
sg2557
g2433
sg1421
I21
sg47
I00
sg48
(lp3329
sg50
I278
sbasg99
g3205
sg37
g2874
sg2528
g3223
sg46
I01
sg256
g3219
sg272
g3215
sg3054
g2433
sg1421
I21
sg47
I00
sg48
(lp3330
sg50
I272
sba(iRuleNodes
SepNode
p3331
(dp3332
g33
g1417
sg35
(lp3333
sg37
g2874
sg46
I01
sg64
I562
sg62
S''
sg75
S';'
sg1421
I21
sg47
I00
sg48
(lp3334
g75
ag64
ag62
asg50
I303
sbasg37
g2865
sg46
I01
sg1421
I19
sg47
I00
sg48
(lp3335
sg50
I197
sbasg37
g2862
sg47
I00
sg46
I01
sg1421
I18
sg2870
g2868
sg48
(lp3336
sg2876
g2874
sg50
I195
sbasg179
(iLUT
LUT
p3337
(dp3338
g182
g2862
sg183
Nsg184
(dp3339
g3073
(iLUT
LUTEntry
p3340
(dp3341
g4
g3060
sg5
g3073
sg7
I-1
sg8
Nsg9
I00
sg10
I00
sg11
g1559
sg13
Nsg14
Nsg313
I00
sg314
Nsbsg2893
(iLUT
LUTEntry
p3342
(dp3343
g4
g2878
sg5
g2893
sg7
I-1
sg8
Nsg9
I00
sg10
I00
sg11
g1559
sg13
Nsg14
Nsg313
I00
sg314
Nsbsg2409
g2407
sg2420
g2418
sg2432
g2430
sg3211
(iLUT
LUTEntry
p3344
(dp3345
g4
g3197
sg5
g3211
sg7
I-1
sg8
Nsg9
I00
sg10
I00
sg11
g1559
sg13
Nsg14
Nsg313
I00
sg314
Nsbssbsg37
(iRuleNodes
InterfaceNode
p3346
(dp3347
g33
g1417
sg189
(iRuleNodes
IdNode
p3348
(dp3349
g33
g189
sg35
(lp3350
sg37
g3346
sg46
I01
sg61
S'Traffic'
p3351
sg62
S' '
sg64
I10
sg1421
I1
sg47
I00
sg48
(lp3352
g61
ag64
ag62
asg50
I3
sbsg35
(lp3353
(iRuleNodes
KeyWordNode
p3354
(dp3355
g33
g239
sg35
(lp3356
sg37
g3346
sg46
I01
sg64
I0
sg62
S''
sg75
g1514
sg1421
I1
sg47
I00
sg48
(lp3357
g75
ag64
ag62
asg50
I2
sbag3348
a(iRuleNodes
SepNode
p3358
(dp3359
g33
g241
sg35
(lp3360
sg37
g3346
sg46
I01
sg64
I17
sg62
S''
sg75
S';'
sg1421
I1
sg47
I00
sg48
(lp3361
g75
ag64
ag62
asg50
I4
sba(iRuleNodes
ImportListNode
p3362
(dp3363
g33
g240
sg35
(lp3364
sg37
g3346
sg46
I01
sg1421
I1
sg47
I00
sg48
(lp3365
sg50
I5
sbag2862
a(iRuleNodes
KeyWordNode
p3366
(dp3367
g33
g132
sg35
(lp3368
sg37
g3346
sg46
I01
sg64
I564
sg62
S'%0A'
p3369
sg75
g1469
sg1421
I22
sg47
I00
sg48
(lp3370
g75
ag64
ag62
asg50
I304
sba(iRuleNodes
IdNode
p3371
(dp3372
g33
g245
sg35
(lp3373
sg37
g3346
sg46
I01
sg61
S'Traffic'
p3374
sg62
S' '
sg64
I568
sg1421
I22
sg47
I00
sg48
(lp3375
g61
ag64
ag62
asg50
I305
sba(iRuleNodes
SepNode
p3376
(dp3377
g33
g244
sg35
(lp3378
sg37
g3346
sg46
I01
sg64
I575
sg62
S''
sg75
S'.'
sg1421
I22
sg47
I00
sg48
(lp3379
g75
ag64
ag62
asg50
I306
sbasg132
g3366
sg37
Nsg239
g3354
sg240
g3362
sg46
I01
sg241
g3358
sg242
S'/home/mark/m3/doc/Traffic.i3'
p3380
sg244
g3376
sg245
g3371
sg47
I01
sg48
(lp3381
g242
asg247
g2862
sg179
(iLUT
LUT
p3382
(dp3383
g182
g3346
sg183
Nsg184
(dp3384
sbsg50
I1
sg1421
I1
sbsg46
I01
sg1421
I3
sg47
I01
sg48
(lp3385
sg50
I6
sbsg252
g2656
sg46
I01
sg253
g2857
sg47
I00
sg48
(lp3386
sg50
I7
sg1421
I3
sbsg46
I01
sg1421
I4
sg47
I00
sg48
(lp3387
sg50
I9
sbsg46
I01
sg256
g2475
sg257
g2647
sg1421
I6
sg47
I00
sg48
(lp3388
sg259
g2652
sg50
I54
sbsg2444
g2442
sg262
I01
sg48
(lp3389
sg265
g266
sg50
I57
sg35
(lp3390
g2618
ag2478
ag2442
ag2614
a(iRuleNodes
VCaseEltListNode
p3391
(dp3392
g33
S'caseElts'
p3393
sg35
(lp3394
(iRuleNodes
SepNode
p3395
(dp3396
g33
g1417
sg35
(lp3397
sg37
g3391
sg46
I01
sg64
I170
sg62
S'%0A    '
p3398
sg75
S'|'
sg1421
I8
sg47
I00
sg48
(lp3399
g75
ag64
ag62
asg50
I71
sba(iRuleNodes
VCaseNode
p3400
(dp3401
g33
g1417
sg1806
(iRuleNodes
KeyWordNode
p3402
(dp3403
g33
g1806
sg35
(lp3404
sg37
g3400
sg46
I01
sg64
I182
sg62
S' '
sg75
S'=>'
p3405
sg1421
I8
sg47
I00
sg48
(lp3406
g75
ag64
ag62
asg50
I82
sbsg35
(lp3407
(iRuleNodes
LabelsListNode
p3408
(dp3409
g33
S'labelList'
p3410
sg35
(lp3411
(iRuleNodes
LabelsNode
p3412
(dp3413
g33
g1417
sg35
(lp3414
(iRuleNodes
ConstExprNode
p3415
(dp3416
g33
g1417
sg35
(lp3417
(iRuleNodes
ExprNode
p3418
(dp3419
g33
g2528
sg35
(lp3420
(iRuleNodes
TypeNameNode
p3421
(dp3422
g33
g2528
sg81
(iRuleNodes
QualIdNode
p3423
(dp3424
g33
g81
sg35
(lp3425
(iRuleNodes
IdNode
p3426
(dp3427
g33
g1417
sg35
(lp3428
sg37
g3423
sg46
I01
sg61
S'vk'
p3429
sg62
S'  '
p3430
sg64
I173
sg1421
I8
sg47
I00
sg48
(lp3431
g61
ag64
ag62
asg50
I79
sba(iRuleNodes
SepNode
p3432
(dp3433
g33
g1417
sg35
(lp3434
sg37
g3423
sg46
I01
sg64
I175
sg62
S''
sg75
S'.'
sg1421
I8
sg47
I00
sg48
(lp3435
g75
ag64
ag62
asg50
I80
sba(iRuleNodes
IdNode
p3436
(dp3437
g33
g1417
sg35
(lp3438
sg37
g3423
sg46
I01
sg61
S'truck'
p3439
sg62
S''
sg64
I176
sg1421
I8
sg47
I00
sg48
(lp3440
g61
ag64
ag62
asg50
I81
sbasg37
g3421
sg46
I01
sg1421
I8
sg47
I00
sg48
(lp3441
sg50
I78
sbsg35
(lp3442
g3423
asg37
g3418
sg46
I01
sg1421
I8
sg47
I00
sg48
(lp3443
sg50
I77
sbasg2556
g2410
sg37
g3415
sg2528
g3421
sg46
I01
sg2557
g2410
sg1421
I8
sg47
I00
sg48
(lp3444
sg50
I76
sbasg37
g3412
sg2528
g3418
sg46
I01
sg1421
I8
sg47
I00
sg48
(lp3445
sg50
I75
sbasg37
g3408
sg46
I01
sg1421
I8
sg47
I00
sg48
(lp3446
sg50
I74
sbasg37
g3400
sg46
I01
sg1421
I8
sg47
I00
sg48
(lp3447
sg50
I73
sbag3402
a(iRuleNodes
FieldListNode
p3448
(dp3449
g33
g261
sg35
(lp3450
(iRuleNodes
FieldNode
p3451
(dp3452
g33
g1417
sg41
(iRuleNodes
TokNode
p3453
(dp3454
g33
g41
sg35
(lp3455
sg37
g3451
sg46
I01
sg64
I211
sg62
S' '
sg75
g2884
sg1421
I9
sg47
I00
sg48
(lp3456
g75
ag64
ag62
asg50
I106
sbsg35
(lp3457
(iRuleNodes
IdListNode
p3458
(dp3459
g33
g99
sg35
(lp3460
(iRuleNodes
IdNode
p3461
(dp3462
g33
g1417
sg35
(lp3463
sg37
g3458
sg46
I01
sg61
S'axels'
p3464
sg62
S' %0A         '
p3465
sg64
I195
sg1421
I9
sg47
I00
sg48
(lp3466
g61
ag64
ag62
asg50
I86
sbasg37
g3451
sg46
I01
sg1421
I9
sg47
I00
sg48
(lp3467
sg50
I85
sba(iRuleNodes
TokNode
p3468
(dp3469
g33
g272
sg35
(lp3470
sg37
g3451
sg46
I01
sg64
I201
sg62
S' '
sg75
S':'
sg1421
I9
sg47
I00
sg48
(lp3471
g75
ag64
ag62
asg50
I87
sba(iRuleNodes
SubrangeNode
p3472
(dp3473
g33
g256
sg35
(lp3474
(iRuleNodes
TokNode
p3475
(dp3476
g33
g2519
sg35
(lp3477
sg37
g3472
sg46
I01
sg64
I203
sg62
S' '
sg75
S'['
sg1421
I9
sg47
I00
sg48
(lp3478
g75
ag64
ag62
asg50
I89
sba(iRuleNodes
ConstExprNode
p3479
(dp3480
g33
g2524
sg35
(lp3481
(iRuleNodes
ExprNode
p3482
(dp3483
g33
g2528
sg35
(lp3484
(iRuleNodes
NumberNode
p3485
(dp3486
g33
g2528
sg2532
I1
sg35
(lp3487
(iRuleNodes
IntNode
p3488
(dp3489
g33
g2536
sg35
(lp3490
sg37
g3485
sg47
I00
sg46
I01
sg62
S''
sg64
I204
sg1421
I9
sg2538
S'2'
sg48
(lp3491
g2538
ag64
ag62
asg50
I93
sba(iRuleNodes
NullNode
p3492
(dp3493
g33
g244
sg35
(lp3494
sg37
g3485
sg46
I01
sg1421
I9
sg47
I00
sg48
(lp3495
sg50
I94
sba(iRuleNodes
NullNode
p3496
(dp3497
g33
g2547
sg35
(lp3498
sg37
g3485
sg46
I01
sg1421
I9
sg47
I00
sg48
(lp3499
sg50
I95
sba(iRuleNodes
NullNode
p3500
(dp3501
g33
g295
sg35
(lp3502
sg37
g3485
sg46
I01
sg1421
I9
sg47
I00
sg48
(lp3503
sg50
I96
sbasg37
g3482
sg2536
g3488
sg46
I01
sg2547
g3496
sg295
g3500
sg1421
I9
sg47
I00
sg48
(lp3504
sg244
g3492
sg50
I92
sg2555
Nsbasg2556
g278
sg37
g3479
sg2528
g3485
sg46
I01
sg2557
g278
sg1421
I9
sg47
I00
sg48
(lp3505
sg50
I91
sbasg2556
g278
sg37
g3472
sg2528
g3482
sg46
I01
sg1421
I9
sg47
I00
sg48
(lp3506
sg50
I90
sba(iRuleNodes
SepNode
p3507
(dp3508
g33
g2562
sg35
(lp3509
sg37
g3472
sg46
I01
sg64
I205
sg62
S''
sg75
g2564
sg1421
I9
sg47
I00
sg48
(lp3510
g75
ag64
ag62
asg50
I97
sba(iRuleNodes
ConstExprNode
p3511
(dp3512
g33
g2568
sg35
(lp3513
(iRuleNodes
ExprNode
p3514
(dp3515
g33
g2528
sg35
(lp3516
(iRuleNodes
NumberNode
p3517
(dp3518
g33
g2528
sg2532
I1
sg35
(lp3519
(iRuleNodes
IntNode
p3520
(dp3521
g33
g2536
sg35
(lp3522
sg37
g3517
sg47
I00
sg46
I01
sg62
S''
sg64
I207
sg1421
I9
sg2538
S'10'
p3523
sg48
(lp3524
g2538
ag64
ag62
asg50
I101
sba(iRuleNodes
NullNode
p3525
(dp3526
g33
g244
sg35
(lp3527
sg37
g3517
sg46
I01
sg1421
I9
sg47
I00
sg48
(lp3528
sg50
I102
sba(iRuleNodes
NullNode
p3529
(dp3530
g33
g2547
sg35
(lp3531
sg37
g3517
sg46
I01
sg1421
I9
sg47
I00
sg48
(lp3532
sg50
I103
sba(iRuleNodes
NullNode
p3533
(dp3534
g33
g295
sg35
(lp3535
sg37
g3517
sg46
I01
sg1421
I9
sg47
I00
sg48
(lp3536
sg50
I104
sbasg37
g3514
sg2536
g3520
sg46
I01
sg2547
g3529
sg295
g3533
sg1421
I9
sg47
I00
sg48
(lp3537
sg244
g3525
sg50
I100
sg2555
Nsbasg2556
g278
sg37
g3511
sg2528
g3517
sg46
I01
sg2557
g278
sg1421
I9
sg47
I00
sg48
(lp3538
sg50
I99
sbasg2556
g278
sg37
g3472
sg2528
g3514
sg46
I01
sg1421
I9
sg47
I00
sg48
(lp3539
sg50
I98
sba(iRuleNodes
TokNode
p3540
(dp3541
g33
g2598
sg35
(lp3542
sg37
g3472
sg46
I01
sg64
I209
sg62
S''
sg75
S']'
sg1421
I9
sg47
I00
sg48
(lp3543
g75
ag64
ag62
asg50
I105
sbasg37
g3451
sg2598
g3540
sg47
I00
sg46
I01
sg2568
g3511
sg2562
g3507
sg262
I01
sg2524
g3479
sg1421
I9
sg2519
g3475
sg48
(lp3544
sg268
(iM3Types
M3IntegerType
p3545
(dp3546
g17
I00
sg18
I00
sg19
I00
sg20
I00
sg21
I00
sg22
I00
sg23
I01
sg24
I01
sg280
I260
sg281
I00
sg282
I00
sg283
I00
sg284
I00
sg285
I00
sg286
I00
sg287
I2
sg288
I00
sg289
I00
sg290
I00
sg291
I00
sg292
I00
sg293
I00
sg294
I00
sg295
Nsg296
I01
sg297
I00
sg298
I00
sg299
I10
sg301
I00
sg302
I00
sg303
I00
sg304
I00
sg305
I2
sg306
I00
sg307
I01
sbsg50
I88
sbag3453
a(iRuleNodes
ConstExprNode
p3547
(dp3548
g33
g273
sg35
(lp3549
(iRuleNodes
ExprNode
p3550
(dp3551
g33
g2528
sg35
(lp3552
(iRuleNodes
NumberNode
p3553
(dp3554
g33
g2528
sg2532
I1
sg35
(lp3555
(iRuleNodes
IntNode
p3556
(dp3557
g33
g2536
sg35
(lp3558
sg37
g3553
sg47
I00
sg46
I01
sg62
S' '
sg64
I214
sg1421
I9
sg2538
S'2'
sg48
(lp3559
g2538
ag64
ag62
asg50
I110
sba(iRuleNodes
NullNode
p3560
(dp3561
g33
g244
sg35
(lp3562
sg37
g3553
sg46
I01
sg1421
I9
sg47
I00
sg48
(lp3563
sg50
I111
sba(iRuleNodes
NullNode
p3564
(dp3565
g33
g2547
sg35
(lp3566
sg37
g3553
sg46
I01
sg1421
I9
sg47
I00
sg48
(lp3567
sg50
I112
sba(iRuleNodes
NullNode
p3568
(dp3569
g33
g295
sg35
(lp3570
sg37
g3553
sg46
I01
sg1421
I9
sg47
I00
sg48
(lp3571
sg50
I113
sbasg37
g3550
sg2536
g3556
sg46
I01
sg2547
g3564
sg295
g3568
sg1421
I9
sg47
I00
sg48
(lp3572
sg244
g3560
sg50
I109
sg2555
Nsbasg2556
g278
sg37
g3547
sg2528
g3553
sg46
I01
sg2557
g278
sg1421
I9
sg47
I00
sg48
(lp3573
sg50
I108
sbasg37
g3451
sg2528
g3550
sg46
I01
sg1421
I9
sg47
I00
sg48
(lp3574
sg50
I107
sbasg99
g3458
sg37
g3448
sg46
I01
sg256
g3472
sg272
g3468
sg273
g3547
sg1421
I9
sg47
I00
sg48
(lp3575
sg50
I84
sba(iRuleNodes
SepNode
p3576
(dp3577
g33
g1417
sg35
(lp3578
sg37
g3448
sg46
I01
sg64
I216
sg62
S' '
sg75
S';'
sg1421
I9
sg47
I00
sg48
(lp3579
g75
ag64
ag62
asg50
I114
sba(iRuleNodes
FieldNode
p3580
(dp3581
g33
g1417
sg41
(iRuleNodes
NullNode
p3582
(dp3583
g33
g41
sg35
(lp3584
sg37
g3580
sg46
I01
sg1421
I10
sg47
I00
sg48
(lp3585
sg50
I122
sbsg35
(lp3586
(iRuleNodes
IdListNode
p3587
(dp3588
g33
g99
sg35
(lp3589
(iRuleNodes
IdNode
p3590
(dp3591
g33
g1417
sg35
(lp3592
sg37
g3587
sg46
I01
sg61
S'weight'
p3593
sg62
S'%0A         '
p3594
sg64
I227
sg1421
I10
sg47
I00
sg48
(lp3595
g61
ag64
ag62
asg50
I117
sbasg37
g3580
sg46
I01
sg1421
I10
sg47
I00
sg48
(lp3596
sg50
I116
sba(iRuleNodes
TokNode
p3597
(dp3598
g33
g272
sg35
(lp3599
sg37
g3580
sg46
I01
sg64
I234
sg62
S' '
sg75
S':'
sg1421
I10
sg47
I00
sg48
(lp3600
g75
ag64
ag62
asg50
I118
sba(iRuleNodes
TypeNameNode
p3601
(dp3602
g33
g256
sg81
(iRuleNodes
QualIdNode
p3603
(dp3604
g33
g81
sg35
(lp3605
(iRuleNodes
IdNode
p3606
(dp3607
g33
g1417
sg35
(lp3608
sg37
g3603
sg46
I01
sg61
S'MetricWeight'
p3609
sg62
S' '
sg64
I236
sg1421
I10
sg47
I00
sg48
(lp3610
g61
ag64
ag62
asg50
I121
sbasg37
g3601
sg46
I01
sg1421
I10
sg47
I00
sg48
(lp3611
sg50
I120
sbsg35
(lp3612
g3603
asg37
g3580
sg46
I01
sg1421
I10
sg47
I00
sg48
(lp3613
sg50
I119
sbag3582
a(iRuleNodes
NullNode
p3614
(dp3615
g33
g273
sg35
(lp3616
sg37
g3580
sg46
I01
sg1421
I10
sg47
I00
sg48
(lp3617
sg50
I123
sbasg99
g3587
sg37
g3448
sg46
I01
sg256
g3601
sg272
g3597
sg273
g3614
sg1421
I10
sg47
I00
sg48
(lp3618
sg50
I115
sba(iRuleNodes
SepNode
p3619
(dp3620
g33
g1417
sg35
(lp3621
sg37
g3448
sg46
I01
sg64
I249
sg62
S' '
sg75
S';'
sg1421
I10
sg47
I00
sg48
(lp3622
g75
ag64
ag62
asg50
I124
sbasg37
g3400
sg46
I01
sg1421
I9
sg47
I00
sg48
(lp3623
sg50
I83
sbasg37
g3391
sg47
I00
sg261
g3448
sg46
I01
sg1421
I8
sg3410
g3408
sg48
(lp3624
sg50
I72
sba(iRuleNodes
SepNode
p3625
(dp3626
g33
g1417
sg35
(lp3627
sg37
g3391
sg46
I01
sg64
I255
sg62
S'%0A    '
p3628
sg75
S'|'
sg1421
I11
sg47
I00
sg48
(lp3629
g75
ag64
ag62
asg50
I125
sba(iRuleNodes
VCaseNode
p3630
(dp3631
g33
g1417
sg1806
(iRuleNodes
KeyWordNode
p3632
(dp3633
g33
g1806
sg35
(lp3634
sg37
g3630
sg46
I01
sg64
I265
sg62
S' '
sg75
g3405
sg1421
I11
sg47
I00
sg48
(lp3635
g75
ag64
ag62
asg50
I136
sbsg35
(lp3636
(iRuleNodes
LabelsListNode
p3637
(dp3638
g33
g3410
sg35
(lp3639
(iRuleNodes
LabelsNode
p3640
(dp3641
g33
g1417
sg35
(lp3642
(iRuleNodes
ConstExprNode
p3643
(dp3644
g33
g1417
sg35
(lp3645
(iRuleNodes
ExprNode
p3646
(dp3647
g33
g2528
sg35
(lp3648
(iRuleNodes
TypeNameNode
p3649
(dp3650
g33
g2528
sg81
(iRuleNodes
QualIdNode
p3651
(dp3652
g33
g81
sg35
(lp3653
(iRuleNodes
IdNode
p3654
(dp3655
g33
g1417
sg35
(lp3656
sg37
g3651
sg46
I01
sg61
S'vk'
p3657
sg62
S'  '
p3658
sg64
I258
sg1421
I11
sg47
I00
sg48
(lp3659
g61
ag64
ag62
asg50
I133
sba(iRuleNodes
SepNode
p3660
(dp3661
g33
g1417
sg35
(lp3662
sg37
g3651
sg46
I01
sg64
I260
sg62
S''
sg75
S'.'
sg1421
I11
sg47
I00
sg48
(lp3663
g75
ag64
ag62
asg50
I134
sba(iRuleNodes
IdNode
p3664
(dp3665
g33
g1417
sg35
(lp3666
sg37
g3651
sg46
I01
sg61
S'car'
p3667
sg62
S''
sg64
I261
sg1421
I11
sg47
I00
sg48
(lp3668
g61
ag64
ag62
asg50
I135
sbasg37
g3649
sg46
I01
sg1421
I11
sg47
I00
sg48
(lp3669
sg50
I132
sbsg35
(lp3670
g3651
asg37
g3646
sg46
I01
sg1421
I11
sg47
I00
sg48
(lp3671
sg50
I131
sbasg2556
g2410
sg37
g3643
sg2528
g3649
sg46
I01
sg2557
g2410
sg1421
I11
sg47
I00
sg48
(lp3672
sg50
I130
sbasg37
g3640
sg2528
g3646
sg46
I01
sg1421
I11
sg47
I00
sg48
(lp3673
sg50
I129
sbasg37
g3637
sg46
I01
sg1421
I11
sg47
I00
sg48
(lp3674
sg50
I128
sbasg37
g3630
sg46
I01
sg1421
I11
sg47
I00
sg48
(lp3675
sg50
I127
sbag3632
a(iRuleNodes
FieldListNode
p3676
(dp3677
g33
g261
sg35
(lp3678
(iRuleNodes
FieldNode
p3679
(dp3680
g33
g1417
sg41
(iRuleNodes
NullNode
p3681
(dp3682
g33
g41
sg35
(lp3683
sg37
g3679
sg46
I01
sg1421
I12
sg47
I00
sg48
(lp3684
sg50
I160
sbsg35
(lp3685
(iRuleNodes
IdListNode
p3686
(dp3687
g33
g99
sg35
(lp3688
(iRuleNodes
IdNode
p3689
(dp3690
g33
g1417
sg35
(lp3691
sg37
g3686
sg46
I01
sg61
S'doors'
p3692
sg62
S' %0A         '
p3693
sg64
I278
sg1421
I12
sg47
I00
sg48
(lp3694
g61
ag64
ag62
asg50
I140
sbasg37
g3679
sg46
I01
sg1421
I12
sg47
I00
sg48
(lp3695
sg50
I139
sba(iRuleNodes
TokNode
p3696
(dp3697
g33
g272
sg35
(lp3698
sg37
g3679
sg46
I01
sg64
I284
sg62
S' '
sg75
S':'
sg1421
I12
sg47
I00
sg48
(lp3699
g75
ag64
ag62
asg50
I141
sba(iRuleNodes
SubrangeNode
p3700
(dp3701
g33
g256
sg35
(lp3702
(iRuleNodes
TokNode
p3703
(dp3704
g33
g2519
sg35
(lp3705
sg37
g3700
sg46
I01
sg64
I286
sg62
S' '
sg75
S'['
sg1421
I12
sg47
I00
sg48
(lp3706
g75
ag64
ag62
asg50
I143
sba(iRuleNodes
ConstExprNode
p3707
(dp3708
g33
g2524
sg35
(lp3709
(iRuleNodes
ExprNode
p3710
(dp3711
g33
g2528
sg35
(lp3712
(iRuleNodes
NumberNode
p3713
(dp3714
g33
g2528
sg2532
I1
sg35
(lp3715
(iRuleNodes
IntNode
p3716
(dp3717
g33
g2536
sg35
(lp3718
sg37
g3713
sg47
I00
sg46
I01
sg62
S''
sg64
I287
sg1421
I12
sg2538
S'2'
sg48
(lp3719
g2538
ag64
ag62
asg50
I147
sba(iRuleNodes
NullNode
p3720
(dp3721
g33
g244
sg35
(lp3722
sg37
g3713
sg46
I01
sg1421
I12
sg47
I00
sg48
(lp3723
sg50
I148
sba(iRuleNodes
NullNode
p3724
(dp3725
g33
g2547
sg35
(lp3726
sg37
g3713
sg46
I01
sg1421
I12
sg47
I00
sg48
(lp3727
sg50
I149
sba(iRuleNodes
NullNode
p3728
(dp3729
g33
g295
sg35
(lp3730
sg37
g3713
sg46
I01
sg1421
I12
sg47
I00
sg48
(lp3731
sg50
I150
sbasg37
g3710
sg2536
g3716
sg46
I01
sg2547
g3724
sg295
g3728
sg1421
I12
sg47
I00
sg48
(lp3732
sg244
g3720
sg50
I146
sg2555
Nsbasg2556
g278
sg37
g3707
sg2528
g3713
sg46
I01
sg2557
g278
sg1421
I12
sg47
I00
sg48
(lp3733
sg50
I145
sbasg2556
g278
sg37
g3700
sg2528
g3710
sg46
I01
sg1421
I12
sg47
I00
sg48
(lp3734
sg50
I144
sba(iRuleNodes
SepNode
p3735
(dp3736
g33
g2562
sg35
(lp3737
sg37
g3700
sg46
I01
sg64
I288
sg62
S''
sg75
g2564
sg1421
I12
sg47
I00
sg48
(lp3738
g75
ag64
ag62
asg50
I151
sba(iRuleNodes
ConstExprNode
p3739
(dp3740
g33
g2568
sg35
(lp3741
(iRuleNodes
ExprNode
p3742
(dp3743
g33
g2528
sg35
(lp3744
(iRuleNodes
NumberNode
p3745
(dp3746
g33
g2528
sg2532
I1
sg35
(lp3747
(iRuleNodes
IntNode
p3748
(dp3749
g33
g2536
sg35
(lp3750
sg37
g3745
sg47
I00
sg46
I01
sg62
S''
sg64
I290
sg1421
I12
sg2538
S'5'
sg48
(lp3751
g2538
ag64
ag62
asg50
I155
sba(iRuleNodes
NullNode
p3752
(dp3753
g33
g244
sg35
(lp3754
sg37
g3745
sg46
I01
sg1421
I12
sg47
I00
sg48
(lp3755
sg50
I156
sba(iRuleNodes
NullNode
p3756
(dp3757
g33
g2547
sg35
(lp3758
sg37
g3745
sg46
I01
sg1421
I12
sg47
I00
sg48
(lp3759
sg50
I157
sba(iRuleNodes
NullNode
p3760
(dp3761
g33
g295
sg35
(lp3762
sg37
g3745
sg46
I01
sg1421
I12
sg47
I00
sg48
(lp3763
sg50
I158
sbasg37
g3742
sg2536
g3748
sg46
I01
sg2547
g3756
sg295
g3760
sg1421
I12
sg47
I00
sg48
(lp3764
sg244
g3752
sg50
I154
sg2555
Nsbasg2556
g278
sg37
g3739
sg2528
g3745
sg46
I01
sg2557
g278
sg1421
I12
sg47
I00
sg48
(lp3765
sg50
I153
sbasg2556
g278
sg37
g3700
sg2528
g3742
sg46
I01
sg1421
I12
sg47
I00
sg48
(lp3766
sg50
I152
sba(iRuleNodes
TokNode
p3767
(dp3768
g33
g2598
sg35
(lp3769
sg37
g3700
sg46
I01
sg64
I291
sg62
S''
sg75
S']'
sg1421
I12
sg47
I00
sg48
(lp3770
g75
ag64
ag62
asg50
I159
sbasg37
g3679
sg2598
g3767
sg47
I00
sg46
I01
sg2568
g3739
sg2562
g3735
sg262
I01
sg2524
g3707
sg1421
I12
sg2519
g3703
sg48
(lp3771
sg268
(iM3Types
M3IntegerType
p3772
(dp3773
g17
I00
sg18
I00
sg19
I00
sg20
I00
sg21
I00
sg22
I00
sg23
I01
sg24
I01
sg280
I261
sg281
I00
sg282
I00
sg283
I00
sg284
I00
sg285
I00
sg286
I00
sg287
I2
sg288
I00
sg289
I00
sg290
I00
sg291
I00
sg292
I00
sg293
I00
sg294
I00
sg295
Nsg296
I01
sg297
I00
sg298
I00
sg299
I5
sg301
I00
sg302
I00
sg303
I00
sg304
I00
sg305
I2
sg306
I00
sg307
I01
sbsg50
I142
sbag3681
a(iRuleNodes
NullNode
p3774
(dp3775
g33
g273
sg35
(lp3776
sg37
g3679
sg46
I01
sg1421
I12
sg47
I00
sg48
(lp3777
sg50
I161
sbasg99
g3686
sg37
g3676
sg46
I01
sg256
g3700
sg272
g3696
sg273
g3774
sg1421
I12
sg47
I00
sg48
(lp3778
sg50
I138
sba(iRuleNodes
SepNode
p3779
(dp3780
g33
g1417
sg35
(lp3781
sg37
g3676
sg46
I01
sg64
I293
sg62
S' '
sg75
S';'
sg1421
I12
sg47
I00
sg48
(lp3782
g75
ag64
ag62
asg50
I162
sbasg37
g3630
sg46
I01
sg1421
I12
sg47
I00
sg48
(lp3783
sg50
I137
sbasg37
g3391
sg47
I00
sg261
g3676
sg46
I01
sg1421
I11
sg3410
g3637
sg48
(lp3784
sg50
I126
sbasg37
g2475
sg46
I01
sg1421
I8
sg47
I00
sg48
(lp3785
sg50
I70
sbag2633
ag2640
ag2623
ag2628
ag2490
ag2484
asg7
I22
sg3393
g3391
sg264
I01
sg47
I00
sbsg46
I01
sg256
g2462
sg272
g2458
sg273
g2439
sg1421
I7
sg47
I00
sg48
(lp3786
sg50
I60
sbsg46
I01
sg1421
I7
sg47
I00
sg48
(lp3787
sg50
I68
sbsg256
g2410
sg5
g2436
sbsg2506
(iM3Types
Field
p3788
(dp3789
g8
Nsg30
g2604
sg256
g2602
sg5
g2506
sbsg3593
(iM3Types
Field
p3790
(dp3791
g8
Nsg30
g3614
sg256
g2421
sg5
g3593
sbsg3464
(iM3Types
Field
p3792
(dp3793
g8
(iM3Objects
M3Integer
p3794
(dp3795
S'val'
p3796
I2
sS'isChoice'
p3797
I00
sg256
g278
sS'statisticsName'
p3798
S'M3Integer'
p3799
sS'statisticsCtrs'
p3800
(dp3801
sS'owner'
p3802
I00
sS'hasPattern'
p3803
I00
sbsg30
g3547
sg256
g3545
sg5
g3464
sbsg3692
(iM3Types
Field
p3804
(dp3805
g8
Nsg30
g3774
sg256
g3772
sg5
g3692
sbssg280
I259
sg281
I00
sS'caselist'
p3806
(lp3807
((lp3808
I1
a(lp3809
g3464
ag3593
atp3810
a((lp3811
I0
a(lp3812
g3692
atp3813
asg282
I00
sg283
I00
sg284
I00
sg285
I00
sg286
I00
sg288
I00
sg289
I00
sg290
I00
sg291
I00
sg292
I00
sg308
S'Traffic__vehicle'
p3814
sg293
I00
sg294
I00
sg296
I00
sS'checked'
p3815
I01
sg297
I00
sS'elselist'
p3816
(lp3817
sg298
I00
sg301
I00
sg302
I00
sS'staticlist'
p3818
(lp3819
g2506
asg303
I00
sS'casectr'
p3820
I0
sS'tagname'
p3821
g2436
sg304
I00
sg306
I00
sg307
I00
sbsg313
I00
sg314
Nsbs.