(dp1
I1
(iLUT
LUTEntry
p2
(dp3
S'node'
p4
NsS'name'
p5
S'Card'
p6
sS'typeCode'
p7
I1
sS'default'
p8
NsS'findingType'
p9
I00
sS'internal'
p10
I00
sS'declarer'
p11
S'TYPE'
p12
sS'finalVal'
p13
NsS'finalTipe'
p14
(iM3Types
M3RecordType
p15
(dp16
S'isText'
p17
I00
sS'isList'
p18
I00
sS'predef'
p19
I00
sS'isRecord'
p20
I01
sS'isDict'
p21
I00
sS'isRef'
p22
I00
sS'isType'
p23
I01
sS'isNumeric'
p24
I00
sS'fielddict'
p25
(dp26
VencodedPIN
p27
(iM3Types
Field
p28
(dp29
g8
NsS'defaultNode'
p30
(iRuleNodes
NullNode
p31
(dp32
S'slot'
p33
VconstExpr
p34
sS'kids'
p35
(lp36
sS'parent'
p37
(iRuleNodes
FieldNode
p38
(dp39
g33
Vanon
p40
sS'ass'
p41
(iRuleNodes
NullNode
p42
(dp43
g33
Vass
p44
sg35
(lp45
sg37
g38
sS'isNode'
p46
I01
sS'hasLUT'
p47
I00
sS'attributes'
p48
(lp49
sS'refid'
p50
V23
p51
sbsg35
(lp52
(iRuleNodes
IdListNode
p53
(dp54
g33
Vidlist
p55
sg35
(lp56
(iRuleNodes
IdNode
p57
(dp58
g33
Vanon
p59
sg35
(lp60
sg37
g53
sg46
I01
sS'idname'
p61
g27
sS'leadChars'
p62
V%0A  
p63
sS'startCol'
p64
V43
p65
sg47
I00
sg48
(lp66
g61
ag64
ag62
asg50
V18
p67
sbasg37
g38
sg46
I01
sg47
I00
sg48
(lp68
sg50
V17
p69
sba(iRuleNodes
TokNode
p70
(dp71
g33
Vcol
p72
sg35
(lp73
sg37
g38
sg46
I01
sg64
V54
p74
sg62
V 
sS'token'
p75
V:
sg47
I00
sg48
(lp76
g75
ag64
ag62
asg50
V19
p77
sba(iRuleNodes
TypeNameNode
p78
(dp79
g33
Vtipe
p80
sS'qualId'
p81
(iRuleNodes
QualIdNode
p82
(dp83
g33
VqualId
p84
sg35
(lp85
(iRuleNodes
IdNode
p86
(dp87
g33
Vanon
p88
sg35
(lp89
sg37
g82
sg46
I01
sg61
VINTEGER
p90
sg62
V 
sg64
V56
p91
sg47
I00
sg48
(lp92
g61
ag64
ag62
asg50
V22
p93
sbasg37
g78
sg46
I01
sg47
I00
sg48
(lp94
sg50
V21
p95
sbsg35
(lp96
g82
asg37
g38
sg46
I01
sg47
I00
sg48
(lp97
sg50
V20
p98
sbag42
ag31
asS'idlist'
p99
g53
sg37
(iRuleNodes
FieldListNode
p100
(dp101
g33
Vfields
p102
sg35
(lp103
g38
a(iRuleNodes
SepNode
p104
(dp105
g33
Vanon
p106
sg35
(lp107
sg37
g100
sg46
I01
sg64
V63
p108
sg62
V
sg75
V;
sg47
I00
sg48
(lp109
g75
ag64
ag62
asg50
V25
p110
sbasg37
(iRuleNodes
RecordNode
p111
(dp112
g33
Vtipe
p113
sg35
(lp114
(iRuleNodes
KeyWordNode
p115
(dp116
g33
Vkwr
p117
sg35
(lp118
sg37
g111
sg46
I01
sg64
V34
p119
sg62
V 
sg75
VRECORD
p120
sg47
I00
sg48
(lp121
g75
ag64
ag62
asg50
V14
p122
sbag100
a(iRuleNodes
KeyWordNode
p123
(dp124
g33
Vkwe
p125
sg35
(lp126
sg37
g111
sg46
I01
sg64
V65
p127
sg62
V%0A
p128
sg75
VEND
p129
sg47
I00
sg48
(lp130
g75
ag64
ag62
asg50
V26
p131
sbasS'kwe'
p132
g123
sg37
(iRuleNodes
TypeDeclNode
p133
(dp134
g33
Vanon
p135
sg35
(lp136
(iRuleNodes
IdNode
p137
(dp138
g33
Vid
p139
sg35
(lp140
sg37
g133
sg46
I01
sg61
VCard
p141
sg62
V 
sg64
V27
p142
sg47
I00
sg48
(lp143
g61
ag64
ag62
asg50
V11
p144
sba(iRuleNodes
OpNode
p145
(dp146
g33
Vsign
p147
sg35
(lp148
sg37
g133
sg46
I01
sg64
V32
p149
sg62
V 
sg75
V=
sg47
I00
sg48
(lp150
g75
ag64
ag62
asg50
V12
p151
sbag111
asg37
(iRuleNodes
TypeDeclsListNode
p152
(dp153
g33
VtypeList
p154
sg35
(lp155
g133
a(iRuleNodes
SepNode
p156
(dp157
g33
Vanon
p158
sg35
(lp159
sg37
g152
sg46
I01
sg64
V68
p160
sg62
V
sg75
V;
sg47
I00
sg48
(lp161
g75
ag64
ag62
asg50
V27
p162
sbasg37
(iRuleNodes
TypeDeclsNode
p163
(dp164
g33
Vanon
p165
sg35
(lp166
(iRuleNodes
KeyWordNode
p167
(dp168
g33
Vkwt
p169
sg35
(lp170
sg37
g163
sg46
I01
sg64
V22
p171
sg62
V%0A%0A
p172
sg75
VTYPE
p173
sg47
I00
sg48
(lp174
g75
ag64
ag62
asg50
V8
sbag152
asg37
(iRuleNodes
InterfaceDeclListNode
p175
(dp176
g33
Vdecls
p177
sg35
(lp178
g163
asS'lut'
p179
(iLUT
LUT
p180
(dp181
S'home'
p182
g175
sS'enclosingLUT'
p183
NsS'table'
p184
(dp185
g141
g2
ssbsg37
(iRuleNodes
InterfaceNode
p186
(dp187
g33
Vanon
p188
sS'modname'
p189
(iRuleNodes
IdNode
p190
(dp191
g33
Vmodname
p192
sg35
(lp193
sg37
g186
sg46
I01
sg61
VBankTypes
p194
sg62
V 
sg64
V10
p195
sg47
I00
sg48
(lp196
g61
ag64
ag62
asg50
V3
sbsg35
(lp197
(iRuleNodes
KeyWordNode
p198
(dp199
g33
Vkwi
p200
sg35
(lp201
sg37
g186
sg46
I01
sg64
V0
sg62
V
sg75
VINTERFACE
p202
sg47
I00
sg48
(lp203
g75
ag64
ag62
asg50
V2
sbag190
a(iRuleNodes
SepNode
p204
(dp205
g33
Vts
p206
sg35
(lp207
sg37
g186
sg46
I01
sg64
V19
p208
sg62
V
sg75
V;
sg47
I00
sg48
(lp209
g75
ag64
ag62
asg50
V4
sba(iRuleNodes
ImportListNode
p210
(dp211
g33
Vimports
p212
sg35
(lp213
sg37
g186
sg46
I01
sg47
I00
sg48
(lp214
sg50
V5
sbag175
a(iRuleNodes
KeyWordNode
p215
(dp216
g33
Vkwe
p217
sg35
(lp218
sg37
g186
sg46
I01
sg64
V71
p219
sg62
V%0A%0A
p220
sg75
VEND
p221
sg47
I00
sg48
(lp222
g75
ag64
ag62
asg50
V28
p223
sba(iRuleNodes
IdNode
p224
(dp225
g33
VendId
p226
sg35
(lp227
sg37
g186
sg46
I01
sg61
VBankTypes
p228
sg62
V 
sg64
V75
p229
sg47
I00
sg48
(lp230
g61
ag64
ag62
asg50
V29
p231
sba(iRuleNodes
SepNode
p232
(dp233
g33
Vtd
p234
sg35
(lp235
sg37
g186
sg46
I01
sg64
V84
p236
sg62
V
sg75
V.
sg47
I00
sg48
(lp237
g75
ag64
ag62
asg50
V30
p238
sbasg132
g215
sg37
NsS'kwi'
p239
g198
sS'imports'
p240
g210
sg46
I01
sS'ts'
p241
g204
sS'source'
p242
V/home/mark/m3/doc/BankTypes.i3
p243
sS'td'
p244
g232
sS'endId'
p245
g224
sg47
I01
sg48
(lp246
g242
asS'decls'
p247
g175
sg50
V1
sg179
(iLUT
LUT
p248
(dp249
g182
g186
sg183
Nsg184
(dp250
sbsbsg46
I01
sg47
I01
sg48
(lp251
sg50
V6
sbsS'typeList'
p252
g152
sg46
I01
sS'kwt'
p253
g167
sg47
I00
sg48
(lp254
sg50
V7
sbsg46
I01
sg47
I00
sg48
(lp255
sg50
V9
sbsg46
I01
sS'tipe'
p256
g111
sS'id'
p257
g137
sg47
I00
sg48
(lp258
sS'sign'
p259
g145
sg50
V10
p260
sbsg7
I1
sS'fields'
p261
g100
sg46
I01
sS'typeCreated'
p262
I01
sS'kwr'
p263
g115
sS'namedType'
p264
I01
sg47
I00
sS'phase'
p265
S'CATEGORY'
p266
sg48
(lp267
sS'type'
p268
g15
sg50
V13
p269
sbsg46
I01
sg47
I00
sg48
(lp270
sg50
V15
p271
sbsg46
I01
sg256
g78
sS'col'
p272
g70
sS'constExpr'
p273
g31
sg47
I00
sg48
(lp274
sg50
V16
p275
sbsg46
I01
sg47
I00
sg48
(lp276
sg50
V24
p277
sbsg256
(iM3Types
M3IntegerType
p278
(dp279
g17
I00
sg18
I00
sg19
I01
sg20
I00
sg21
I00
sg22
I00
sg23
I01
sg24
I01
sS'tcode'
p280
I3
sS'isSubArray'
p281
I00
sS'isBoolean'
p282
I00
sS'isError'
p283
I00
sS'isEnum'
p284
I00
sS'isProcedure'
p285
I00
sS'isTrigger'
p286
I00
sS'cBaseOffset'
p287
L-170141183460469231731687303715884105728L
sS'isSet'
p288
I00
sS'isProtocol'
p289
I00
sS'isArray'
p290
I00
sS'isTimer'
p291
I00
sS'isOpen'
p292
I00
sS'isModule'
p293
I00
sS'isPort'
p294
I00
sS'scaling'
p295
NsS'isOrdinal'
p296
I01
sS'isReal'
p297
I00
sS'isObject'
p298
I00
sS'last'
p299
L170141183460469231731687303715884105727L
sg5
S'M3IntegerBase'
p300
sS'isCapsuleBody'
p301
I00
sS'isChar'
p302
I00
sS'isNull'
p303
I00
sS'isSubrange'
p304
I00
sS'first'
p305
L-170141183460469231731687303715884105728L
sS'isCapsuleSpec'
p306
I00
sS'isInteger'
p307
I01
sbsg5
g27
sbssg280
I66
sg281
I00
sg282
I00
sg283
I00
sg284
I00
sg285
I00
sg286
I00
sg288
I00
sg289
I00
sg290
I00
sg291
I00
sg292
I00
sS'CCodeName'
p308
VBankTypes__Card
p309
sg293
I00
sg294
I00
sS'fieldnames'
p310
(lp311
g27
asg296
I00
sg297
I00
sg298
I00
sg301
I00
sg261
(lp312
g28
asg302
I00
sg303
I00
sg304
I00
sg306
I00
sg307
I00
sbsS'isIvar'
p313
I00
sS'mode'
p314
NsbsI2
(iLUT
LUTEntry
p315
(dp316
g4
Nsg5
S'CardState'
p317
sg7
I2
sg8
Nsg9
I00
sg10
I00
sg11
g12
sg13
Nsg14
(iM3Types
M3EnumType
p318
(dp319
g17
I00
sg18
I00
sg19
I00
sg20
I00
sg21
I00
sg22
I00
sg11
S'VAR'
p320
sg23
I01
sg24
I00
sg280
I84
sg281
I00
sg282
I00
sS'orddict'
p321
(dp322
S'Inserted'
p323
I1
sS'Authorized'
p324
I2
sS'Empty'
p325
I0
ssg283
I00
sg284
I01
sg285
I00
sg286
I00
sg287
I0
sg288
I00
sg289
I00
sS'firstord'
p326
I0
sg290
I00
sg291
I00
sg292
I00
sg308
S'ATM__CardState'
p327
sg293
I00
sg294
I00
sS'base'
p328
g318
sg296
I01
sg297
I00
sg298
I00
sg299
g324
sg301
I00
sg302
I00
sg303
I00
sS'values'
p329
(lp330
g325
ag323
ag324
asS'lastord'
p331
I2
sg304
I00
sg305
g325
sg306
I00
sg307
I00
sbsg313
I01
sg314
NsbsI3
(iLUT
LUTEntry
p332
(dp333
g4
Nsg5
S'Card'
p334
sg7
I3
sg8
Nsg9
I00
sg10
I00
sg11
g12
sg13
Nsg14
(iM3Types
M3RecordType
p335
(dp336
g17
I00
sg18
I00
sg19
I00
sg20
I01
sg21
I00
sg22
I00
sg23
I01
sg24
I00
sg25
(dp337
VencodedPIN
p338
(iM3Types
Field
p339
(dp340
g8
Nsg30
(iRuleNodes
NullNode
p341
(dp342
g33
VconstExpr
p343
sg35
(lp344
sg37
(iRuleNodes
FieldNode
p345
(dp346
g33
Vanon
p347
sg41
(iRuleNodes
NullNode
p348
(dp349
g33
Vass
p350
sg35
(lp351
sg37
g345
sg46
I01
sg47
I00
sg48
(lp352
sg50
V23
p353
sbsg35
(lp354
(iRuleNodes
IdListNode
p355
(dp356
g33
Vidlist
p357
sg35
(lp358
(iRuleNodes
IdNode
p359
(dp360
g33
Vanon
p361
sg35
(lp362
sg37
g355
sg46
I01
sg61
g338
sg62
V%0A  
p363
sg64
V43
p364
sg47
I00
sg48
(lp365
g61
ag64
ag62
asg50
V18
p366
sbasg37
g345
sg46
I01
sg47
I00
sg48
(lp367
sg50
V17
p368
sba(iRuleNodes
TokNode
p369
(dp370
g33
Vcol
p371
sg35
(lp372
sg37
g345
sg46
I01
sg64
V54
p373
sg62
V 
sg75
V:
sg47
I00
sg48
(lp374
g75
ag64
ag62
asg50
V19
p375
sba(iRuleNodes
TypeNameNode
p376
(dp377
g33
Vtipe
p378
sg81
(iRuleNodes
QualIdNode
p379
(dp380
g33
VqualId
p381
sg35
(lp382
(iRuleNodes
IdNode
p383
(dp384
g33
Vanon
p385
sg35
(lp386
sg37
g379
sg46
I01
sg61
VINTEGER
p387
sg62
V 
sg64
V56
p388
sg47
I00
sg48
(lp389
g61
ag64
ag62
asg50
V22
p390
sbasg37
g376
sg46
I01
sg47
I00
sg48
(lp391
sg50
V21
p392
sbsg35
(lp393
g379
asg37
g345
sg46
I01
sg47
I00
sg48
(lp394
sg50
V20
p395
sbag348
ag341
asg99
g355
sg37
(iRuleNodes
FieldListNode
p396
(dp397
g33
Vfields
p398
sg35
(lp399
g345
a(iRuleNodes
SepNode
p400
(dp401
g33
Vanon
p402
sg35
(lp403
sg37
g396
sg46
I01
sg64
V63
p404
sg62
V
sg75
V;
sg47
I00
sg48
(lp405
g75
ag64
ag62
asg50
V25
p406
sbasg37
(iRuleNodes
RecordNode
p407
(dp408
g33
Vtipe
p409
sg35
(lp410
(iRuleNodes
KeyWordNode
p411
(dp412
g33
Vkwr
p413
sg35
(lp414
sg37
g407
sg46
I01
sg64
V34
p415
sg62
V 
sg75
VRECORD
p416
sg47
I00
sg48
(lp417
g75
ag64
ag62
asg50
V14
p418
sbag396
a(iRuleNodes
KeyWordNode
p419
(dp420
g33
Vkwe
p421
sg35
(lp422
sg37
g407
sg46
I01
sg64
V65
p423
sg62
V%0A
p424
sg75
VEND
p425
sg47
I00
sg48
(lp426
g75
ag64
ag62
asg50
V26
p427
sbasg132
g419
sg37
(iRuleNodes
TypeDeclNode
p428
(dp429
g33
Vanon
p430
sg35
(lp431
(iRuleNodes
IdNode
p432
(dp433
g33
Vid
p434
sg35
(lp435
sg37
g428
sg46
I01
sg61
VCard
p436
sg62
V 
sg64
V27
p437
sg47
I00
sg48
(lp438
g61
ag64
ag62
asg50
V11
p439
sba(iRuleNodes
OpNode
p440
(dp441
g33
Vsign
p442
sg35
(lp443
sg37
g428
sg46
I01
sg64
V32
p444
sg62
V 
sg75
V=
sg47
I00
sg48
(lp445
g75
ag64
ag62
asg50
V12
p446
sbag407
asg37
(iRuleNodes
TypeDeclsListNode
p447
(dp448
g33
VtypeList
p449
sg35
(lp450
g428
a(iRuleNodes
SepNode
p451
(dp452
g33
Vanon
p453
sg35
(lp454
sg37
g447
sg46
I01
sg64
V68
p455
sg62
V
sg75
V;
sg47
I00
sg48
(lp456
g75
ag64
ag62
asg50
V27
p457
sbasg37
(iRuleNodes
TypeDeclsNode
p458
(dp459
g33
Vanon
p460
sg35
(lp461
(iRuleNodes
KeyWordNode
p462
(dp463
g33
Vkwt
p464
sg35
(lp465
sg37
g458
sg46
I01
sg64
V22
p466
sg62
V%0A%0A
p467
sg75
VTYPE
p468
sg47
I00
sg48
(lp469
g75
ag64
ag62
asg50
V8
sbag447
asg37
(iRuleNodes
InterfaceDeclListNode
p470
(dp471
g33
Vdecls
p472
sg35
(lp473
g458
asg179
(iLUT
LUT
p474
(dp475
g182
g470
sg183
Nsg184
(dp476
g436
g332
ssbsg37
(iRuleNodes
InterfaceNode
p477
(dp478
g33
Vanon
p479
sg189
(iRuleNodes
IdNode
p480
(dp481
g33
Vmodname
p482
sg35
(lp483
sg37
g477
sg46
I01
sg61
VBankTypes
p484
sg62
V 
sg64
V10
p485
sg47
I00
sg48
(lp486
g61
ag64
ag62
asg50
V3
sbsg35
(lp487
(iRuleNodes
KeyWordNode
p488
(dp489
g33
Vkwi
p490
sg35
(lp491
sg37
g477
sg46
I01
sg64
V0
sg62
V
sg75
VINTERFACE
p492
sg47
I00
sg48
(lp493
g75
ag64
ag62
asg50
V2
sbag480
a(iRuleNodes
SepNode
p494
(dp495
g33
Vts
p496
sg35
(lp497
sg37
g477
sg46
I01
sg64
V19
p498
sg62
V
sg75
V;
sg47
I00
sg48
(lp499
g75
ag64
ag62
asg50
V4
sba(iRuleNodes
ImportListNode
p500
(dp501
g33
Vimports
p502
sg35
(lp503
sg37
g477
sg46
I01
sg47
I00
sg48
(lp504
sg50
V5
sbag470
a(iRuleNodes
KeyWordNode
p505
(dp506
g33
Vkwe
p507
sg35
(lp508
sg37
g477
sg46
I01
sg64
V71
p509
sg62
V%0A%0A
p510
sg75
VEND
p511
sg47
I00
sg48
(lp512
g75
ag64
ag62
asg50
V28
p513
sba(iRuleNodes
IdNode
p514
(dp515
g33
VendId
p516
sg35
(lp517
sg37
g477
sg46
I01
sg61
VBankTypes
p518
sg62
V 
sg64
V75
p519
sg47
I00
sg48
(lp520
g61
ag64
ag62
asg50
V29
p521
sba(iRuleNodes
SepNode
p522
(dp523
g33
Vtd
p524
sg35
(lp525
sg37
g477
sg46
I01
sg64
V84
p526
sg62
V
sg75
V.
sg47
I00
sg48
(lp527
g75
ag64
ag62
asg50
V30
p528
sbasg132
g505
sg37
Nsg239
g488
sg240
g500
sg46
I01
sg241
g494
sg242
V/home/mark/m3/doc/BankTypes.i3
p529
sg244
g522
sg245
g514
sg47
I01
sg48
(lp530
g242
asg247
g470
sg50
V1
sg179
(iLUT
LUT
p531
(dp532
g182
g477
sg183
Nsg184
(dp533
sbsbsg46
I01
sg47
I01
sg48
(lp534
sg50
V6
sbsg252
g447
sg46
I01
sg253
g462
sg47
I00
sg48
(lp535
sg50
V7
sbsg46
I01
sg47
I00
sg48
(lp536
sg50
V9
sbsg46
I01
sg256
g407
sg257
g432
sg47
I00
sg48
(lp537
sg259
g440
sg50
V10
p538
sbsg7
I3
sg261
g396
sg46
I01
sg262
I01
sg263
g411
sg264
I01
sg47
I00
sg265
g266
sg48
(lp539
sg268
g335
sg50
V13
p540
sbsg46
I01
sg47
I00
sg48
(lp541
sg50
V15
p542
sbsg46
I01
sg256
g376
sg272
g369
sg273
g341
sg47
I00
sg48
(lp543
sg50
V16
p544
sbsg46
I01
sg47
I00
sg48
(lp545
sg50
V24
p546
sbsg256
g278
sg5
g338
sbssg280
I88
sg281
I00
sg282
I00
sg283
I00
sg284
I00
sg285
I00
sg286
I00
sg288
I00
sg289
I00
sg290
I00
sg291
I00
sg292
I00
sg308
VBankTypes__Card
p547
sg293
I00
sg294
I00
sg310
(lp548
g338
asg296
I00
sg297
I00
sg298
I00
sg301
I00
sg261
(lp549
g339
asg302
I00
sg303
I00
sg304
I00
sg306
I00
sg307
I00
sbsg313
I00
sg314
NsbsI4
(iLUT
LUTEntry
p550
(dp551
g4
Nsg5
S'Card'
p552
sg7
I4
sg8
Nsg9
I00
sg10
I00
sg11
g12
sg13
Nsg14
(iM3Types
M3RecordType
p553
(dp554
g17
I00
sg18
I00
sg19
I00
sg20
I01
sg21
I00
sg22
I00
sg23
I01
sg24
I00
sg25
(dp555
VencodedPIN
p556
(iM3Types
Field
p557
(dp558
g8
Nsg30
(iRuleNodes
NullNode
p559
(dp560
g33
VconstExpr
p561
sg35
(lp562
sg37
(iRuleNodes
FieldNode
p563
(dp564
g33
Vanon
p565
sg41
(iRuleNodes
NullNode
p566
(dp567
g33
Vass
p568
sg35
(lp569
sg37
g563
sg46
I01
sg47
I00
sg48
(lp570
sg50
V23
p571
sbsg35
(lp572
(iRuleNodes
IdListNode
p573
(dp574
g33
Vidlist
p575
sg35
(lp576
(iRuleNodes
IdNode
p577
(dp578
g33
Vanon
p579
sg35
(lp580
sg37
g573
sg46
I01
sg61
g556
sg62
V%0A  
p581
sg64
V43
p582
sg47
I00
sg48
(lp583
g61
ag64
ag62
asg50
V18
p584
sbasg37
g563
sg46
I01
sg47
I00
sg48
(lp585
sg50
V17
p586
sba(iRuleNodes
TokNode
p587
(dp588
g33
Vcol
p589
sg35
(lp590
sg37
g563
sg46
I01
sg64
V54
p591
sg62
V 
sg75
V:
sg47
I00
sg48
(lp592
g75
ag64
ag62
asg50
V19
p593
sba(iRuleNodes
TypeNameNode
p594
(dp595
g33
Vtipe
p596
sg81
(iRuleNodes
QualIdNode
p597
(dp598
g33
VqualId
p599
sg35
(lp600
(iRuleNodes
IdNode
p601
(dp602
g33
Vanon
p603
sg35
(lp604
sg37
g597
sg46
I01
sg61
VINTEGER
p605
sg62
V 
sg64
V56
p606
sg47
I00
sg48
(lp607
g61
ag64
ag62
asg50
V22
p608
sbasg37
g594
sg46
I01
sg47
I00
sg48
(lp609
sg50
V21
p610
sbsg35
(lp611
g597
asg37
g563
sg46
I01
sg47
I00
sg48
(lp612
sg50
V20
p613
sbag566
ag559
asg99
g573
sg37
(iRuleNodes
FieldListNode
p614
(dp615
g33
Vfields
p616
sg35
(lp617
g563
a(iRuleNodes
SepNode
p618
(dp619
g33
Vanon
p620
sg35
(lp621
sg37
g614
sg46
I01
sg64
V63
p622
sg62
V
sg75
V;
sg47
I00
sg48
(lp623
g75
ag64
ag62
asg50
V25
p624
sbasg37
(iRuleNodes
RecordNode
p625
(dp626
g33
Vtipe
p627
sg35
(lp628
(iRuleNodes
KeyWordNode
p629
(dp630
g33
Vkwr
p631
sg35
(lp632
sg37
g625
sg46
I01
sg64
V34
p633
sg62
V 
sg75
VRECORD
p634
sg47
I00
sg48
(lp635
g75
ag64
ag62
asg50
V14
p636
sbag614
a(iRuleNodes
KeyWordNode
p637
(dp638
g33
Vkwe
p639
sg35
(lp640
sg37
g625
sg46
I01
sg64
V65
p641
sg62
V%0A
p642
sg75
VEND
p643
sg47
I00
sg48
(lp644
g75
ag64
ag62
asg50
V26
p645
sbasg132
g637
sg37
(iRuleNodes
TypeDeclNode
p646
(dp647
g33
Vanon
p648
sg35
(lp649
(iRuleNodes
IdNode
p650
(dp651
g33
Vid
p652
sg35
(lp653
sg37
g646
sg46
I01
sg61
VCard
p654
sg62
V 
sg64
V27
p655
sg47
I00
sg48
(lp656
g61
ag64
ag62
asg50
V11
p657
sba(iRuleNodes
OpNode
p658
(dp659
g33
Vsign
p660
sg35
(lp661
sg37
g646
sg46
I01
sg64
V32
p662
sg62
V 
sg75
V=
sg47
I00
sg48
(lp663
g75
ag64
ag62
asg50
V12
p664
sbag625
asg37
(iRuleNodes
TypeDeclsListNode
p665
(dp666
g33
VtypeList
p667
sg35
(lp668
g646
a(iRuleNodes
SepNode
p669
(dp670
g33
Vanon
p671
sg35
(lp672
sg37
g665
sg46
I01
sg64
V68
p673
sg62
V
sg75
V;
sg47
I00
sg48
(lp674
g75
ag64
ag62
asg50
V27
p675
sbasg37
(iRuleNodes
TypeDeclsNode
p676
(dp677
g33
Vanon
p678
sg35
(lp679
(iRuleNodes
KeyWordNode
p680
(dp681
g33
Vkwt
p682
sg35
(lp683
sg37
g676
sg46
I01
sg64
V22
p684
sg62
V%0A%0A
p685
sg75
VTYPE
p686
sg47
I00
sg48
(lp687
g75
ag64
ag62
asg50
V8
sbag665
asg37
(iRuleNodes
InterfaceDeclListNode
p688
(dp689
g33
Vdecls
p690
sg35
(lp691
g676
asg179
(iLUT
LUT
p692
(dp693
g182
g688
sg183
Nsg184
(dp694
g654
g550
ssbsg37
(iRuleNodes
InterfaceNode
p695
(dp696
g33
Vanon
p697
sg189
(iRuleNodes
IdNode
p698
(dp699
g33
Vmodname
p700
sg35
(lp701
sg37
g695
sg46
I01
sg61
VBankTypes
p702
sg62
V 
sg64
V10
p703
sg47
I00
sg48
(lp704
g61
ag64
ag62
asg50
V3
sbsg35
(lp705
(iRuleNodes
KeyWordNode
p706
(dp707
g33
Vkwi
p708
sg35
(lp709
sg37
g695
sg46
I01
sg64
V0
sg62
V
sg75
VINTERFACE
p710
sg47
I00
sg48
(lp711
g75
ag64
ag62
asg50
V2
sbag698
a(iRuleNodes
SepNode
p712
(dp713
g33
Vts
p714
sg35
(lp715
sg37
g695
sg46
I01
sg64
V19
p716
sg62
V
sg75
V;
sg47
I00
sg48
(lp717
g75
ag64
ag62
asg50
V4
sba(iRuleNodes
ImportListNode
p718
(dp719
g33
Vimports
p720
sg35
(lp721
sg37
g695
sg46
I01
sg47
I00
sg48
(lp722
sg50
V5
sbag688
a(iRuleNodes
KeyWordNode
p723
(dp724
g33
Vkwe
p725
sg35
(lp726
sg37
g695
sg46
I01
sg64
V71
p727
sg62
V%0A%0A
p728
sg75
VEND
p729
sg47
I00
sg48
(lp730
g75
ag64
ag62
asg50
V28
p731
sba(iRuleNodes
IdNode
p732
(dp733
g33
VendId
p734
sg35
(lp735
sg37
g695
sg46
I01
sg61
VBankTypes
p736
sg62
V 
sg64
V75
p737
sg47
I00
sg48
(lp738
g61
ag64
ag62
asg50
V29
p739
sba(iRuleNodes
SepNode
p740
(dp741
g33
Vtd
p742
sg35
(lp743
sg37
g695
sg46
I01
sg64
V84
p744
sg62
V
sg75
V.
sg47
I00
sg48
(lp745
g75
ag64
ag62
asg50
V30
p746
sbasg132
g723
sg37
Nsg239
g706
sg240
g718
sg46
I01
sg241
g712
sg242
V/home/mark/m3/doc/BankTypes.i3
p747
sg244
g740
sg245
g732
sg47
I01
sg48
(lp748
g242
asg247
g688
sg50
V1
sg179
(iLUT
LUT
p749
(dp750
g182
g695
sg183
Nsg184
(dp751
sbsbsg46
I01
sg47
I01
sg48
(lp752
sg50
V6
sbsg252
g665
sg46
I01
sg253
g680
sg47
I00
sg48
(lp753
sg50
V7
sbsg46
I01
sg47
I00
sg48
(lp754
sg50
V9
sbsg46
I01
sg256
g625
sg257
g650
sg47
I00
sg48
(lp755
sg259
g658
sg50
V10
p756
sbsg7
I4
sg261
g614
sg46
I01
sg262
I01
sg263
g629
sg264
I01
sg47
I00
sg265
g266
sg48
(lp757
sg268
g553
sg50
V13
p758
sbsg46
I01
sg47
I00
sg48
(lp759
sg50
V15
p760
sbsg46
I01
sg256
g594
sg272
g587
sg273
g559
sg47
I00
sg48
(lp761
sg50
V16
p762
sbsg46
I01
sg47
I00
sg48
(lp763
sg50
V24
p764
sbsg256
g278
sg5
g556
sbssg280
I111
sg281
I00
sg282
I00
sg283
I00
sg284
I00
sg285
I00
sg286
I00
sg288
I00
sg289
I00
sg290
I00
sg291
I00
sg292
I00
sg308
VBankTypes__Card
p765
sg293
I00
sg294
I00
sg310
(lp766
g556
asg296
I00
sg297
I00
sg298
I00
sg301
I00
sg261
(lp767
g557
asg302
I00
sg303
I00
sg304
I00
sg306
I00
sg307
I00
sbsg313
I00
sg314
NsbsI5
(iLUT
LUTEntry
p768
(dp769
g4
Nsg5
S'Card'
p770
sg7
I5
sg8
Nsg9
I00
sg10
I00
sg11
g12
sg13
Nsg14
(iM3Types
M3RecordType
p771
(dp772
g17
I00
sg18
I00
sg19
I00
sg20
I01
sg21
I00
sg22
I00
sg23
I01
sg24
I00
sg25
(dp773
VencodedPIN
p774
(iM3Types
Field
p775
(dp776
g8
Nsg30
(iRuleNodes
NullNode
p777
(dp778
g33
VconstExpr
p779
sg35
(lp780
sg37
(iRuleNodes
FieldNode
p781
(dp782
g33
Vanon
p783
sg41
(iRuleNodes
NullNode
p784
(dp785
g33
Vass
p786
sg35
(lp787
sg37
g781
sg46
I01
sg47
I00
sg48
(lp788
sg50
V23
p789
sbsg35
(lp790
(iRuleNodes
IdListNode
p791
(dp792
g33
Vidlist
p793
sg35
(lp794
(iRuleNodes
IdNode
p795
(dp796
g33
Vanon
p797
sg35
(lp798
sg37
g791
sg46
I01
sg61
g774
sg62
V%0A  
p799
sg64
V43
p800
sg47
I00
sg48
(lp801
g61
ag64
ag62
asg50
V18
p802
sbasg37
g781
sg46
I01
sg47
I00
sg48
(lp803
sg50
V17
p804
sba(iRuleNodes
TokNode
p805
(dp806
g33
Vcol
p807
sg35
(lp808
sg37
g781
sg46
I01
sg64
V54
p809
sg62
V 
sg75
V:
sg47
I00
sg48
(lp810
g75
ag64
ag62
asg50
V19
p811
sba(iRuleNodes
TypeNameNode
p812
(dp813
g33
Vtipe
p814
sg81
(iRuleNodes
QualIdNode
p815
(dp816
g33
VqualId
p817
sg35
(lp818
(iRuleNodes
IdNode
p819
(dp820
g33
Vanon
p821
sg35
(lp822
sg37
g815
sg46
I01
sg61
VINTEGER
p823
sg62
V 
sg64
V56
p824
sg47
I00
sg48
(lp825
g61
ag64
ag62
asg50
V22
p826
sbasg37
g812
sg46
I01
sg47
I00
sg48
(lp827
sg50
V21
p828
sbsg35
(lp829
g815
asg37
g781
sg46
I01
sg47
I00
sg48
(lp830
sg50
V20
p831
sbag784
ag777
asg99
g791
sg37
(iRuleNodes
FieldListNode
p832
(dp833
g33
Vfields
p834
sg35
(lp835
g781
a(iRuleNodes
SepNode
p836
(dp837
g33
Vanon
p838
sg35
(lp839
sg37
g832
sg46
I01
sg64
V63
p840
sg62
V
sg75
V;
sg47
I00
sg48
(lp841
g75
ag64
ag62
asg50
V25
p842
sbasg37
(iRuleNodes
RecordNode
p843
(dp844
g33
Vtipe
p845
sg35
(lp846
(iRuleNodes
KeyWordNode
p847
(dp848
g33
Vkwr
p849
sg35
(lp850
sg37
g843
sg46
I01
sg64
V34
p851
sg62
V 
sg75
VRECORD
p852
sg47
I00
sg48
(lp853
g75
ag64
ag62
asg50
V14
p854
sbag832
a(iRuleNodes
KeyWordNode
p855
(dp856
g33
Vkwe
p857
sg35
(lp858
sg37
g843
sg46
I01
sg64
V65
p859
sg62
V%0A
p860
sg75
VEND
p861
sg47
I00
sg48
(lp862
g75
ag64
ag62
asg50
V26
p863
sbasg132
g855
sg37
(iRuleNodes
TypeDeclNode
p864
(dp865
g33
Vanon
p866
sg35
(lp867
(iRuleNodes
IdNode
p868
(dp869
g33
Vid
p870
sg35
(lp871
sg37
g864
sg46
I01
sg61
VCard
p872
sg62
V 
sg64
V27
p873
sg47
I00
sg48
(lp874
g61
ag64
ag62
asg50
V11
p875
sba(iRuleNodes
OpNode
p876
(dp877
g33
Vsign
p878
sg35
(lp879
sg37
g864
sg46
I01
sg64
V32
p880
sg62
V 
sg75
V=
sg47
I00
sg48
(lp881
g75
ag64
ag62
asg50
V12
p882
sbag843
asg37
(iRuleNodes
TypeDeclsListNode
p883
(dp884
g33
VtypeList
p885
sg35
(lp886
g864
a(iRuleNodes
SepNode
p887
(dp888
g33
Vanon
p889
sg35
(lp890
sg37
g883
sg46
I01
sg64
V68
p891
sg62
V
sg75
V;
sg47
I00
sg48
(lp892
g75
ag64
ag62
asg50
V27
p893
sbasg37
(iRuleNodes
TypeDeclsNode
p894
(dp895
g33
Vanon
p896
sg35
(lp897
(iRuleNodes
KeyWordNode
p898
(dp899
g33
Vkwt
p900
sg35
(lp901
sg37
g894
sg46
I01
sg64
V22
p902
sg62
V%0A%0A
p903
sg75
VTYPE
p904
sg47
I00
sg48
(lp905
g75
ag64
ag62
asg50
V8
sbag883
asg37
(iRuleNodes
InterfaceDeclListNode
p906
(dp907
g33
Vdecls
p908
sg35
(lp909
g894
asg179
(iLUT
LUT
p910
(dp911
g182
g906
sg183
Nsg184
(dp912
g872
g768
ssbsg37
(iRuleNodes
InterfaceNode
p913
(dp914
g33
Vanon
p915
sg189
(iRuleNodes
IdNode
p916
(dp917
g33
Vmodname
p918
sg35
(lp919
sg37
g913
sg46
I01
sg61
VBankTypes
p920
sg62
V 
sg64
V10
p921
sg47
I00
sg48
(lp922
g61
ag64
ag62
asg50
V3
sbsg35
(lp923
(iRuleNodes
KeyWordNode
p924
(dp925
g33
Vkwi
p926
sg35
(lp927
sg37
g913
sg46
I01
sg64
V0
sg62
V
sg75
VINTERFACE
p928
sg47
I00
sg48
(lp929
g75
ag64
ag62
asg50
V2
sbag916
a(iRuleNodes
SepNode
p930
(dp931
g33
Vts
p932
sg35
(lp933
sg37
g913
sg46
I01
sg64
V19
p934
sg62
V
sg75
V;
sg47
I00
sg48
(lp935
g75
ag64
ag62
asg50
V4
sba(iRuleNodes
ImportListNode
p936
(dp937
g33
Vimports
p938
sg35
(lp939
sg37
g913
sg46
I01
sg47
I00
sg48
(lp940
sg50
V5
sbag906
a(iRuleNodes
KeyWordNode
p941
(dp942
g33
Vkwe
p943
sg35
(lp944
sg37
g913
sg46
I01
sg64
V71
p945
sg62
V%0A%0A
p946
sg75
VEND
p947
sg47
I00
sg48
(lp948
g75
ag64
ag62
asg50
V28
p949
sba(iRuleNodes
IdNode
p950
(dp951
g33
VendId
p952
sg35
(lp953
sg37
g913
sg46
I01
sg61
VBankTypes
p954
sg62
V 
sg64
V75
p955
sg47
I00
sg48
(lp956
g61
ag64
ag62
asg50
V29
p957
sba(iRuleNodes
SepNode
p958
(dp959
g33
Vtd
p960
sg35
(lp961
sg37
g913
sg46
I01
sg64
V84
p962
sg62
V
sg75
V.
sg47
I00
sg48
(lp963
g75
ag64
ag62
asg50
V30
p964
sbasg132
g941
sg37
Nsg239
g924
sg240
g936
sg46
I01
sg241
g930
sg242
V/home/mark/m3/doc/BankTypes.i3
p965
sg244
g958
sg245
g950
sg47
I01
sg48
(lp966
g242
asg247
g906
sg50
V1
sg179
(iLUT
LUT
p967
(dp968
g182
g913
sg183
Nsg184
(dp969
sbsbsg46
I01
sg47
I01
sg48
(lp970
sg50
V6
sbsg252
g883
sg46
I01
sg253
g898
sg47
I00
sg48
(lp971
sg50
V7
sbsg46
I01
sg47
I00
sg48
(lp972
sg50
V9
sbsg46
I01
sg256
g843
sg257
g868
sg47
I00
sg48
(lp973
sg259
g876
sg50
V10
p974
sbsg7
I5
sg261
g832
sg46
I01
sg262
I01
sg263
g847
sg264
I01
sg47
I00
sg265
g266
sg48
(lp975
sg268
g771
sg50
V13
p976
sbsg46
I01
sg47
I00
sg48
(lp977
sg50
V15
p978
sbsg46
I01
sg256
g812
sg272
g805
sg273
g777
sg47
I00
sg48
(lp979
sg50
V16
p980
sbsg46
I01
sg47
I00
sg48
(lp981
sg50
V24
p982
sbsg256
g278
sg5
g774
sbssg280
I132
sg281
I00
sg282
I00
sg283
I00
sg284
I00
sg285
I00
sg286
I00
sg288
I00
sg289
I00
sg290
I00
sg291
I00
sg292
I00
sg308
VBankTypes__Card
p983
sg293
I00
sg294
I00
sg310
(lp984
g774
asg296
I00
sg297
I00
sg298
I00
sg301
I00
sg261
(lp985
g775
asg302
I00
sg303
I00
sg304
I00
sg306
I00
sg307
I00
sbsg313
I00
sg314
NsbsI6
(iLUT
LUTEntry
p986
(dp987
g4
Nsg5
VTime
p988
sg7
I6
sg8
Nsg9
I00
sg10
I00
sg11
g12
sg13
Nsg14
(iM3Types
M3IntegerType
p989
(dp990
g17
I00
sg18
I00
sg19
I00
sg20
I00
sg21
I00
sg22
I00
sg23
I01
sg24
I01
sg280
I150
sg281
I00
sg282
I00
sg283
I00
sg284
I00
sg285
I00
sg286
I00
sg287
L-170141183460469231731687303715884105728L
sg288
I00
sg289
I00
sg290
I00
sg291
I00
sg292
I00
sg308
VTimer__Time
p991
sg293
I00
sg294
I00
sg295
(lp992
(Vyear
p993
L31536000000000000000L
tp994
a(Vday
p995
L86400000000000000L
tp996
a(Vhour
p997
L3600000000000000L
tp998
a(Vmin
p999
L60000000000000L
tp1000
a(Vs
L1000000000000L
tp1001
a(Vms
p1002
I1000000000
tp1003
a(Vus
p1004
I1000000
tp1005
a(Vns
p1006
I1000
tp1007
a(Vps
p1008
I1
tp1009
asg296
I01
sg297
I00
sg298
I00
sg299
L170141183460469231731687303715884105727L
sg301
I00
sg302
I00
sg303
I00
sg304
I00
sg305
L-170141183460469231731687303715884105728L
sg306
I00
sg307
I01
sbsg313
I00
sg314
NsbsI7
(iLUT
LUTEntry
p1010
(dp1011
g4
Nsg5
VCard
p1012
sg7
I7
sg8
Nsg9
I00
sg10
I00
sg11
g12
sg13
Nsg14
(iM3Types
M3RecordType
p1013
(dp1014
g17
I00
sg18
I00
sg19
I00
sg20
I01
sg21
I00
sg22
I00
sg23
I01
sg24
I00
sg25
(dp1015
VencodedPIN
p1016
(iM3Types
Field
p1017
(dp1018
g8
Nsg30
(iRuleNodes
NullNode
p1019
(dp1020
g33
VconstExpr
p1021
sg35
(lp1022
sg37
(iRuleNodes
FieldNode
p1023
(dp1024
g33
Vanon
p1025
sg41
(iRuleNodes
NullNode
p1026
(dp1027
g33
Vass
p1028
sg35
(lp1029
sg37
g1023
sg46
I01
sg47
I00
sg48
(lp1030
sg50
V23
p1031
sbsg35
(lp1032
(iRuleNodes
IdListNode
p1033
(dp1034
g33
Vidlist
p1035
sg35
(lp1036
(iRuleNodes
IdNode
p1037
(dp1038
g33
Vanon
p1039
sg35
(lp1040
sg37
g1033
sg46
I01
sg61
g1016
sg62
V%0A  
p1041
sg64
V43
p1042
sg47
I00
sg48
(lp1043
g61
ag64
ag62
asg50
V18
p1044
sbasg37
g1023
sg46
I01
sg47
I00
sg48
(lp1045
sg50
V17
p1046
sba(iRuleNodes
TokNode
p1047
(dp1048
g33
Vcol
p1049
sg35
(lp1050
sg37
g1023
sg46
I01
sg64
V54
p1051
sg62
V 
sg75
V:
sg47
I00
sg48
(lp1052
g75
ag64
ag62
asg50
V19
p1053
sba(iRuleNodes
TypeNameNode
p1054
(dp1055
g33
Vtipe
p1056
sg81
(iRuleNodes
QualIdNode
p1057
(dp1058
g33
VqualId
p1059
sg35
(lp1060
(iRuleNodes
IdNode
p1061
(dp1062
g33
Vanon
p1063
sg35
(lp1064
sg37
g1057
sg46
I01
sg61
VINTEGER
p1065
sg62
V 
sg64
V56
p1066
sg47
I00
sg48
(lp1067
g61
ag64
ag62
asg50
V22
p1068
sbasg37
g1054
sg46
I01
sg47
I00
sg48
(lp1069
sg50
V21
p1070
sbsg35
(lp1071
g1057
asg37
g1023
sg46
I01
sg47
I00
sg48
(lp1072
sg50
V20
p1073
sbag1026
ag1019
asg99
g1033
sg37
(iRuleNodes
FieldListNode
p1074
(dp1075
g33
Vfields
p1076
sg35
(lp1077
g1023
a(iRuleNodes
SepNode
p1078
(dp1079
g33
Vanon
p1080
sg35
(lp1081
sg37
g1074
sg46
I01
sg64
V63
p1082
sg62
V
sg75
V;
sg47
I00
sg48
(lp1083
g75
ag64
ag62
asg50
V25
p1084
sbasg37
(iRuleNodes
RecordNode
p1085
(dp1086
g33
Vtipe
p1087
sg35
(lp1088
(iRuleNodes
KeyWordNode
p1089
(dp1090
g33
Vkwr
p1091
sg35
(lp1092
sg37
g1085
sg46
I01
sg64
V34
p1093
sg62
V 
sg75
VRECORD
p1094
sg47
I00
sg48
(lp1095
g75
ag64
ag62
asg50
V14
p1096
sbag1074
a(iRuleNodes
KeyWordNode
p1097
(dp1098
g33
Vkwe
p1099
sg35
(lp1100
sg37
g1085
sg46
I01
sg64
V65
p1101
sg62
V%0A
p1102
sg75
VEND
p1103
sg47
I00
sg48
(lp1104
g75
ag64
ag62
asg50
V26
p1105
sbasg132
g1097
sg37
(iRuleNodes
TypeDeclNode
p1106
(dp1107
g33
Vanon
p1108
sg35
(lp1109
(iRuleNodes
IdNode
p1110
(dp1111
g33
Vid
p1112
sg35
(lp1113
sg37
g1106
sg46
I01
sg61
VCard
p1114
sg62
V 
sg64
V27
p1115
sg47
I00
sg48
(lp1116
g61
ag64
ag62
asg50
V11
p1117
sba(iRuleNodes
OpNode
p1118
(dp1119
g33
Vsign
p1120
sg35
(lp1121
sg37
g1106
sg46
I01
sg64
V32
p1122
sg62
V 
sg75
V=
sg47
I00
sg48
(lp1123
g75
ag64
ag62
asg50
V12
p1124
sbag1085
asg37
(iRuleNodes
TypeDeclsListNode
p1125
(dp1126
g33
VtypeList
p1127
sg35
(lp1128
g1106
a(iRuleNodes
SepNode
p1129
(dp1130
g33
Vanon
p1131
sg35
(lp1132
sg37
g1125
sg46
I01
sg64
V68
p1133
sg62
V
sg75
V;
sg47
I00
sg48
(lp1134
g75
ag64
ag62
asg50
V27
p1135
sbasg37
(iRuleNodes
TypeDeclsNode
p1136
(dp1137
g33
Vanon
p1138
sg35
(lp1139
(iRuleNodes
KeyWordNode
p1140
(dp1141
g33
Vkwt
p1142
sg35
(lp1143
sg37
g1136
sg46
I01
sg64
V22
p1144
sg62
V%0A%0A
p1145
sg75
VTYPE
p1146
sg47
I00
sg48
(lp1147
g75
ag64
ag62
asg50
V8
sbag1125
asg37
(iRuleNodes
InterfaceDeclListNode
p1148
(dp1149
g33
Vdecls
p1150
sg35
(lp1151
g1136
asg179
(iLUT
LUT
p1152
(dp1153
g182
g1148
sg183
Nsg184
(dp1154
g1114
g1010
ssbsg37
(iRuleNodes
InterfaceNode
p1155
(dp1156
g33
Vanon
p1157
sg189
(iRuleNodes
IdNode
p1158
(dp1159
g33
Vmodname
p1160
sg35
(lp1161
sg37
g1155
sg46
I01
sg61
VBankTypes
p1162
sg62
V 
sg64
V10
p1163
sg47
I00
sg48
(lp1164
g61
ag64
ag62
asg50
V3
sbsg35
(lp1165
(iRuleNodes
KeyWordNode
p1166
(dp1167
g33
Vkwi
p1168
sg35
(lp1169
sg37
g1155
sg46
I01
sg64
V0
sg62
V
sg75
VINTERFACE
p1170
sg47
I00
sg48
(lp1171
g75
ag64
ag62
asg50
V2
sbag1158
a(iRuleNodes
SepNode
p1172
(dp1173
g33
Vts
p1174
sg35
(lp1175
sg37
g1155
sg46
I01
sg64
V19
p1176
sg62
V
sg75
V;
sg47
I00
sg48
(lp1177
g75
ag64
ag62
asg50
V4
sba(iRuleNodes
ImportListNode
p1178
(dp1179
g33
Vimports
p1180
sg35
(lp1181
sg37
g1155
sg46
I01
sg47
I00
sg48
(lp1182
sg50
V5
sbag1148
a(iRuleNodes
KeyWordNode
p1183
(dp1184
g33
Vkwe
p1185
sg35
(lp1186
sg37
g1155
sg46
I01
sg64
V71
p1187
sg62
V%0A%0A
p1188
sg75
VEND
p1189
sg47
I00
sg48
(lp1190
g75
ag64
ag62
asg50
V28
p1191
sba(iRuleNodes
IdNode
p1192
(dp1193
g33
VendId
p1194
sg35
(lp1195
sg37
g1155
sg46
I01
sg61
VBankTypes
p1196
sg62
V 
sg64
V75
p1197
sg47
I00
sg48
(lp1198
g61
ag64
ag62
asg50
V29
p1199
sba(iRuleNodes
SepNode
p1200
(dp1201
g33
Vtd
p1202
sg35
(lp1203
sg37
g1155
sg46
I01
sg64
V84
p1204
sg62
V
sg75
V.
sg47
I00
sg48
(lp1205
g75
ag64
ag62
asg50
V30
p1206
sbasg132
g1183
sg37
Nsg239
g1166
sg240
g1178
sg46
I01
sg241
g1172
sg242
V/home/mark/m3/doc/BankTypes.i3
p1207
sg244
g1200
sg245
g1192
sg47
I01
sg48
(lp1208
g242
asg247
g1148
sg50
V1
sg179
(iLUT
LUT
p1209
(dp1210
g182
g1155
sg183
Nsg184
(dp1211
sbsbsg46
I01
sg47
I01
sg48
(lp1212
sg50
V6
sbsg252
g1125
sg46
I01
sg253
g1140
sg47
I00
sg48
(lp1213
sg50
V7
sbsg46
I01
sg47
I00
sg48
(lp1214
sg50
V9
sbsg46
I01
sg256
g1085
sg257
g1110
sg47
I00
sg48
(lp1215
sg259
g1118
sg50
V10
p1216
sbsg7
I7
sg261
g1074
sg46
I01
sg262
I01
sg263
g1089
sg264
I01
sg47
I00
sg265
g266
sg48
(lp1217
sg268
g1013
sg50
V13
p1218
sbsg46
I01
sg47
I00
sg48
(lp1219
sg50
V15
p1220
sbsg46
I01
sg256
g1054
sg272
g1047
sg273
g1019
sg47
I00
sg48
(lp1221
sg50
V16
p1222
sbsg46
I01
sg47
I00
sg48
(lp1223
sg50
V24
p1224
sbsg256
g278
sg5
g1016
sbssg280
I165
sg281
I00
sg282
I00
sg283
I00
sg284
I00
sg285
I00
sg286
I00
sg288
I00
sg289
I00
sg290
I00
sg291
I00
sg292
I00
sg308
VBankTypes__Card
p1225
sg293
I00
sg294
I00
sg310
(lp1226
g1016
asg296
I00
sg297
I00
sg298
I00
sg301
I00
sg261
(lp1227
g1017
asg302
I00
sg303
I00
sg304
I00
sg306
I00
sg307
I00
sbsg313
I00
sg314
NsbsI8
(iLUT
LUTEntry
p1228
(dp1229
g4
Nsg5
VCard
p1230
sg7
I8
sg8
Nsg9
I00
sg10
I00
sg11
g12
sg13
Nsg14
(iM3Types
M3RecordType
p1231
(dp1232
g17
I00
sg18
I00
sg19
I00
sg20
I01
sg21
I00
sg22
I00
sg23
I01
sg24
I00
sg25
(dp1233
VencodedPIN
p1234
(iM3Types
Field
p1235
(dp1236
g8
Nsg30
(iRuleNodes
NullNode
p1237
(dp1238
g33
VconstExpr
p1239
sg35
(lp1240
sg37
(iRuleNodes
FieldNode
p1241
(dp1242
g33
Vanon
p1243
sg41
(iRuleNodes
NullNode
p1244
(dp1245
g33
Vass
p1246
sg35
(lp1247
sg37
g1241
sg46
I01
sg47
I00
sg48
(lp1248
sg50
V23
p1249
sbsg35
(lp1250
(iRuleNodes
IdListNode
p1251
(dp1252
g33
Vidlist
p1253
sg35
(lp1254
(iRuleNodes
IdNode
p1255
(dp1256
g33
Vanon
p1257
sg35
(lp1258
sg37
g1251
sg46
I01
sg61
g1234
sg62
V%0A  
p1259
sg64
V43
p1260
sg47
I00
sg48
(lp1261
g61
ag64
ag62
asg50
V18
p1262
sbasg37
g1241
sg46
I01
sg47
I00
sg48
(lp1263
sg50
V17
p1264
sba(iRuleNodes
TokNode
p1265
(dp1266
g33
Vcol
p1267
sg35
(lp1268
sg37
g1241
sg46
I01
sg64
V54
p1269
sg62
V 
sg75
V:
sg47
I00
sg48
(lp1270
g75
ag64
ag62
asg50
V19
p1271
sba(iRuleNodes
TypeNameNode
p1272
(dp1273
g33
Vtipe
p1274
sg81
(iRuleNodes
QualIdNode
p1275
(dp1276
g33
VqualId
p1277
sg35
(lp1278
(iRuleNodes
IdNode
p1279
(dp1280
g33
Vanon
p1281
sg35
(lp1282
sg37
g1275
sg46
I01
sg61
VINTEGER
p1283
sg62
V 
sg64
V56
p1284
sg47
I00
sg48
(lp1285
g61
ag64
ag62
asg50
V22
p1286
sbasg37
g1272
sg46
I01
sg47
I00
sg48
(lp1287
sg50
V21
p1288
sbsg35
(lp1289
g1275
asg37
g1241
sg46
I01
sg47
I00
sg48
(lp1290
sg50
V20
p1291
sbag1244
ag1237
asg99
g1251
sg37
(iRuleNodes
FieldListNode
p1292
(dp1293
g33
Vfields
p1294
sg35
(lp1295
g1241
a(iRuleNodes
SepNode
p1296
(dp1297
g33
Vanon
p1298
sg35
(lp1299
sg37
g1292
sg46
I01
sg64
V63
p1300
sg62
V
sg75
V;
sg47
I00
sg48
(lp1301
g75
ag64
ag62
asg50
V25
p1302
sbasg37
(iRuleNodes
RecordNode
p1303
(dp1304
g33
Vtipe
p1305
sg35
(lp1306
(iRuleNodes
KeyWordNode
p1307
(dp1308
g33
Vkwr
p1309
sg35
(lp1310
sg37
g1303
sg46
I01
sg64
V34
p1311
sg62
V 
sg75
VRECORD
p1312
sg47
I00
sg48
(lp1313
g75
ag64
ag62
asg50
V14
p1314
sbag1292
a(iRuleNodes
KeyWordNode
p1315
(dp1316
g33
Vkwe
p1317
sg35
(lp1318
sg37
g1303
sg46
I01
sg64
V65
p1319
sg62
V%0A
p1320
sg75
VEND
p1321
sg47
I00
sg48
(lp1322
g75
ag64
ag62
asg50
V26
p1323
sbasg132
g1315
sg37
(iRuleNodes
TypeDeclNode
p1324
(dp1325
g33
Vanon
p1326
sg35
(lp1327
(iRuleNodes
IdNode
p1328
(dp1329
g33
Vid
p1330
sg35
(lp1331
sg37
g1324
sg46
I01
sg61
VCard
p1332
sg62
V 
sg64
V27
p1333
sg47
I00
sg48
(lp1334
g61
ag64
ag62
asg50
V11
p1335
sba(iRuleNodes
OpNode
p1336
(dp1337
g33
Vsign
p1338
sg35
(lp1339
sg37
g1324
sg46
I01
sg64
V32
p1340
sg62
V 
sg75
V=
sg47
I00
sg48
(lp1341
g75
ag64
ag62
asg50
V12
p1342
sbag1303
asg37
(iRuleNodes
TypeDeclsListNode
p1343
(dp1344
g33
VtypeList
p1345
sg35
(lp1346
g1324
a(iRuleNodes
SepNode
p1347
(dp1348
g33
Vanon
p1349
sg35
(lp1350
sg37
g1343
sg46
I01
sg64
V68
p1351
sg62
V
sg75
V;
sg47
I00
sg48
(lp1352
g75
ag64
ag62
asg50
V27
p1353
sbasg37
(iRuleNodes
TypeDeclsNode
p1354
(dp1355
g33
Vanon
p1356
sg35
(lp1357
(iRuleNodes
KeyWordNode
p1358
(dp1359
g33
Vkwt
p1360
sg35
(lp1361
sg37
g1354
sg46
I01
sg64
V22
p1362
sg62
V%0A%0A
p1363
sg75
VTYPE
p1364
sg47
I00
sg48
(lp1365
g75
ag64
ag62
asg50
V8
sbag1343
asg37
(iRuleNodes
InterfaceDeclListNode
p1366
(dp1367
g33
Vdecls
p1368
sg35
(lp1369
g1354
asg179
(iLUT
LUT
p1370
(dp1371
g182
g1366
sg183
Nsg184
(dp1372
g1332
g1228
ssbsg37
(iRuleNodes
InterfaceNode
p1373
(dp1374
g33
Vanon
p1375
sg189
(iRuleNodes
IdNode
p1376
(dp1377
g33
Vmodname
p1378
sg35
(lp1379
sg37
g1373
sg46
I01
sg61
VBankTypes
p1380
sg62
V 
sg64
V10
p1381
sg47
I00
sg48
(lp1382
g61
ag64
ag62
asg50
V3
sbsg35
(lp1383
(iRuleNodes
KeyWordNode
p1384
(dp1385
g33
Vkwi
p1386
sg35
(lp1387
sg37
g1373
sg46
I01
sg64
V0
sg62
V
sg75
VINTERFACE
p1388
sg47
I00
sg48
(lp1389
g75
ag64
ag62
asg50
V2
sbag1376
a(iRuleNodes
SepNode
p1390
(dp1391
g33
Vts
p1392
sg35
(lp1393
sg37
g1373
sg46
I01
sg64
V19
p1394
sg62
V
sg75
V;
sg47
I00
sg48
(lp1395
g75
ag64
ag62
asg50
V4
sba(iRuleNodes
ImportListNode
p1396
(dp1397
g33
Vimports
p1398
sg35
(lp1399
sg37
g1373
sg46
I01
sg47
I00
sg48
(lp1400
sg50
V5
sbag1366
a(iRuleNodes
KeyWordNode
p1401
(dp1402
g33
Vkwe
p1403
sg35
(lp1404
sg37
g1373
sg46
I01
sg64
V71
p1405
sg62
V%0A%0A
p1406
sg75
VEND
p1407
sg47
I00
sg48
(lp1408
g75
ag64
ag62
asg50
V28
p1409
sba(iRuleNodes
IdNode
p1410
(dp1411
g33
VendId
p1412
sg35
(lp1413
sg37
g1373
sg46
I01
sg61
VBankTypes
p1414
sg62
V 
sg64
V75
p1415
sg47
I00
sg48
(lp1416
g61
ag64
ag62
asg50
V29
p1417
sba(iRuleNodes
SepNode
p1418
(dp1419
g33
Vtd
p1420
sg35
(lp1421
sg37
g1373
sg46
I01
sg64
V84
p1422
sg62
V
sg75
V.
sg47
I00
sg48
(lp1423
g75
ag64
ag62
asg50
V30
p1424
sbasg132
g1401
sg37
Nsg239
g1384
sg240
g1396
sg46
I01
sg241
g1390
sg242
V/home/mark/m3/doc/BankTypes.i3
p1425
sg244
g1418
sg245
g1410
sg47
I01
sg48
(lp1426
g242
asg247
g1366
sg50
V1
sg179
(iLUT
LUT
p1427
(dp1428
g182
g1373
sg183
Nsg184
(dp1429
sbsbsg46
I01
sg47
I01
sg48
(lp1430
sg50
V6
sbsg252
g1343
sg46
I01
sg253
g1358
sg47
I00
sg48
(lp1431
sg50
V7
sbsg46
I01
sg47
I00
sg48
(lp1432
sg50
V9
sbsg46
I01
sg256
g1303
sg257
g1328
sg47
I00
sg48
(lp1433
sg259
g1336
sg50
V10
p1434
sbsg7
I8
sg261
g1292
sg46
I01
sg262
I01
sg263
g1307
sg264
I01
sg47
I00
sg265
g266
sg48
(lp1435
sg268
g1231
sg50
V13
p1436
sbsg46
I01
sg47
I00
sg48
(lp1437
sg50
V15
p1438
sbsg46
I01
sg256
g1272
sg272
g1265
sg273
g1237
sg47
I00
sg48
(lp1439
sg50
V16
p1440
sbsg46
I01
sg47
I00
sg48
(lp1441
sg50
V24
p1442
sbsg256
g278
sg5
g1234
sbssg280
I223
sg281
I00
sg282
I00
sg283
I00
sg284
I00
sg285
I00
sg286
I00
sg288
I00
sg289
I00
sg290
I00
sg291
I00
sg292
I00
sg308
VBankTypes__Card
p1443
sg293
I00
sg294
I00
sg310
(lp1444
g1234
asg296
I00
sg297
I00
sg298
I00
sg301
I00
sg261
(lp1445
g1235
asg302
I00
sg303
I00
sg304
I00
sg306
I00
sg307
I00
sbsg313
I00
sg314
NsbsI9
(iLUT
LUTEntry
p1446
(dp1447
g4
Nsg5
VTime
p1448
sg7
I9
sg8
Nsg9
I00
sg10
I00
sg11
g12
sg13
Nsg14
(iM3Types
M3IntegerType
p1449
(dp1450
g17
I00
sg18
I00
sg19
I00
sg20
I00
sg21
I00
sg22
I00
sg23
I01
sg24
I01
sg280
I272
sg281
I00
sg282
I00
sg283
I00
sg284
I00
sg285
I00
sg286
I00
sg287
L-170141183460469231731687303715884105728L
sg288
I00
sg289
I00
sg290
I00
sg291
I00
sg292
I00
sg308
VTimer__Time
p1451
sg293
I00
sg294
I00
sg295
(lp1452
(Vyear
p1453
L31536000000000000000L
tp1454
a(Vday
p1455
L86400000000000000L
tp1456
a(Vhour
p1457
L3600000000000000L
tp1458
a(Vmin
p1459
L60000000000000L
tp1460
a(Vs
L1000000000000L
tp1461
a(Vms
p1462
I1000000000
tp1463
a(Vus
p1464
I1000000
tp1465
a(Vns
p1466
I1000
tp1467
a(Vps
p1468
I1
tp1469
asg296
I01
sg297
I00
sg298
I00
sg299
L170141183460469231731687303715884105727L
sg301
I00
sg302
I00
sg303
I00
sg304
I00
sg305
L-170141183460469231731687303715884105728L
sg306
I00
sg307
I01
sbsg313
I00
sg314
NsbsI10
(iLUT
LUTEntry
p1470
(dp1471
g4
Nsg5
VTime
p1472
sg7
I10
sg8
Nsg9
I00
sg10
I00
sg11
g12
sg13
Nsg14
(iM3Types
M3IntegerType
p1473
(dp1474
g17
I00
sg18
I00
sg19
I00
sg20
I00
sg21
I00
sg22
I00
sg23
I01
sg24
I01
sg280
I304
sg281
I00
sg282
I00
sg283
I00
sg284
I00
sg285
I00
sg286
I00
sg287
L-170141183460469231731687303715884105728L
sg288
I00
sg289
I00
sg290
I00
sg291
I00
sg292
I00
sg308
VTimer__Time
p1475
sg293
I00
sg294
I00
sg295
(lp1476
(Vyear
L31536000000000000000L
tp1477
a(Vday
L86400000000000000L
tp1478
a(Vhour
L3600000000000000L
tp1479
a(Vmin
L60000000000000L
tp1480
a(Vs
L1000000000000L
tp1481
a(Vms
I1000000000
tp1482
a(Vus
I1000000
tp1483
a(Vns
I1000
tp1484
a(Vps
I1
tp1485
asg296
I01
sg297
I00
sg298
I00
sg299
L170141183460469231731687303715884105727L
sg301
I00
sg302
I00
sg303
I00
sg304
I00
sg305
L-170141183460469231731687303715884105728L
sg306
I00
sg307
I01
sbsg313
I00
sg314
NsbsI11
(iLUT
LUTEntry
p1486
(dp1487
g4
Nsg5
VTime
p1488
sg7
I11
sg8
Nsg9
I00
sg10
I00
sg11
g12
sg13
Nsg14
(iM3Types
M3IntegerType
p1489
(dp1490
g17
I00
sg18
I00
sg19
I00
sg20
I00
sg21
I00
sg22
I00
sg23
I01
sg24
I01
sg280
I323
sg281
I00
sg282
I00
sg283
I00
sg284
I00
sg285
I00
sg286
I00
sg287
L-170141183460469231731687303715884105728L
sg288
I00
sg289
I00
sg290
I00
sg291
I00
sg292
I00
sg308
VTimer__Time
p1491
sg293
I00
sg294
I00
sg295
(lp1492
(Vyear
L31536000000000000000L
tp1493
a(Vday
L86400000000000000L
tp1494
a(Vhour
L3600000000000000L
tp1495
a(Vmin
L60000000000000L
tp1496
a(Vs
L1000000000000L
tp1497
a(Vms
I1000000000
tp1498
a(Vus
I1000000
tp1499
a(Vns
I1000
tp1500
a(Vps
I1
tp1501
asg296
I01
sg297
I00
sg298
I00
sg299
L170141183460469231731687303715884105727L
sg301
I00
sg302
I00
sg303
I00
sg304
I00
sg305
L-170141183460469231731687303715884105728L
sg306
I00
sg307
I01
sbsg313
I00
sg314
NsbsI12
NsI13
NsI14
NsI15
NsI16
(iLUT
LUTEntry
p1502
(dp1503
g4
Nsg5
VTime
p1504
sg7
I16
sg8
Nsg9
I00
sg10
I00
sg11
g12
sg13
Nsg14
(iM3Types
M3IntegerType
p1505
(dp1506
g17
I00
sg18
I00
sg19
I00
sg20
I00
sg21
I00
sg22
I00
sg23
I01
sg24
I01
sg280
I355
sg281
I00
sg282
I00
sg283
I00
sg284
I00
sg285
I00
sg286
I00
sg287
L-170141183460469231731687303715884105728L
sg288
I00
sg289
I00
sg290
I00
sg291
I00
sg292
I00
sg308
VTimer__Time
p1507
sg293
I00
sg294
I00
sg295
(lp1508
(Vyear
L31536000000000000000L
tp1509
a(Vday
L86400000000000000L
tp1510
a(Vhour
L3600000000000000L
tp1511
a(Vmin
L60000000000000L
tp1512
a(Vs
L1000000000000L
tp1513
a(Vms
I1000000000
tp1514
a(Vus
I1000000
tp1515
a(Vns
I1000
tp1516
a(Vps
I1
tp1517
asg296
I01
sg297
I00
sg298
I00
sg299
L170141183460469231731687303715884105727L
sg301
I00
sg302
I00
sg303
I00
sg304
I00
sg305
L-170141183460469231731687303715884105728L
sg306
I00
sg307
I01
sbsg313
I00
sg314
NsbsI17
(iLUT
LUTEntry
p1518
(dp1519
g4
Nsg5
VTime
p1520
sg7
I17
sg8
Nsg9
I00
sg10
I00
sg11
g12
sg13
Nsg14
(iM3Types
M3IntegerType
p1521
(dp1522
g17
I00
sg18
I00
sg19
I00
sg20
I00
sg21
I00
sg22
I00
sg23
I01
sg24
I01
sg280
I365
sg281
I00
sg282
I00
sg283
I00
sg284
I00
sg285
I00
sg286
I00
sg287
L-170141183460469231731687303715884105728L
sg288
I00
sg289
I00
sg290
I00
sg291
I00
sg292
I00
sg308
VTimer__Time
p1523
sg293
I00
sg294
I00
sg295
(lp1524
(Vyear
p1525
L31536000000000000000L
tp1526
a(Vday
p1527
L86400000000000000L
tp1528
a(Vhour
p1529
L3600000000000000L
tp1530
a(Vmin
p1531
L60000000000000L
tp1532
a(Vs
L1000000000000L
tp1533
a(Vms
p1534
I1000000000
tp1535
a(Vus
p1536
I1000000
tp1537
a(Vns
p1538
I1000
tp1539
a(Vps
p1540
I1
tp1541
asg296
I01
sg297
I00
sg298
I00
sg299
L170141183460469231731687303715884105727L
sg301
I00
sg302
I00
sg303
I00
sg304
I00
sg305
L-170141183460469231731687303715884105728L
sg306
I00
sg307
I01
sbsg313
I00
sg314
NsbsI18
NsI19
NsI20
(iLUT
LUTEntry
p1542
(dp1543
g4
Nsg5
VTime
p1544
sg7
I20
sg8
Nsg9
I00
sg10
I00
sg11
g12
sg13
Nsg14
(iM3Types
M3IntegerType
p1545
(dp1546
g17
I00
sg18
I00
sg19
I00
sg20
I00
sg21
I00
sg22
I00
sg23
I01
sg24
I01
sg280
I402
sg281
I00
sg282
I00
sg283
I00
sg284
I00
sg285
I00
sg286
I00
sg287
L-170141183460469231731687303715884105728L
sg288
I00
sg289
I00
sg290
I00
sg291
I00
sg292
I00
sg308
VTimer__Time
p1547
sg293
I00
sg294
I00
sg295
(lp1548
(Vyear
L31536000000000000000L
tp1549
a(Vday
L86400000000000000L
tp1550
a(Vhour
L3600000000000000L
tp1551
a(Vmin
L60000000000000L
tp1552
a(Vs
L1000000000000L
tp1553
a(Vms
I1000000000
tp1554
a(Vus
I1000000
tp1555
a(Vns
I1000
tp1556
a(Vps
I1
tp1557
asg296
I01
sg297
I00
sg298
I00
sg299
L170141183460469231731687303715884105727L
sg301
I00
sg302
I00
sg303
I00
sg304
I00
sg305
L-170141183460469231731687303715884105728L
sg306
I00
sg307
I01
sbsg313
I00
sg314
NsbsI21
(iLUT
LUTEntry
p1558
(dp1559
g4
Nsg5
VTime
p1560
sg7
I21
sg8
Nsg9
I00
sg10
I00
sg11
g12
sg13
Nsg14
(iM3Types
M3IntegerType
p1561
(dp1562
g17
I00
sg18
I00
sg19
I00
sg20
I00
sg21
I00
sg22
I00
sg23
I01
sg24
I01
sg280
I421
sg281
I00
sg282
I00
sg283
I00
sg284
I00
sg285
I00
sg286
I00
sg287
L-170141183460469231731687303715884105728L
sg288
I00
sg289
I00
sg290
I00
sg291
I00
sg292
I00
sg308
VTimer__Time
p1563
sg293
I00
sg294
I00
sg295
(lp1564
(Vyear
L31536000000000000000L
tp1565
a(Vday
L86400000000000000L
tp1566
a(Vhour
L3600000000000000L
tp1567
a(Vmin
L60000000000000L
tp1568
a(Vs
L1000000000000L
tp1569
a(Vms
I1000000000
tp1570
a(Vus
I1000000
tp1571
a(Vns
I1000
tp1572
a(Vps
I1
tp1573
asg296
I01
sg297
I00
sg298
I00
sg299
L170141183460469231731687303715884105727L
sg301
I00
sg302
I00
sg303
I00
sg304
I00
sg305
L-170141183460469231731687303715884105728L
sg306
I00
sg307
I01
sbsg313
I00
sg314
NsbsI22
(iLUT
LUTEntry
p1574
(dp1575
g4
Nsg5
VTime
p1576
sg7
I22
sg8
Nsg9
I00
sg10
I00
sg11
g12
sg13
Nsg14
(iM3Types
M3IntegerType
p1577
(dp1578
g17
I00
sg18
I00
sg19
I00
sg20
I00
sg21
I00
sg22
I00
sg23
I01
sg24
I01
sg280
I460
sg281
I00
sg282
I00
sg283
I00
sg284
I00
sg285
I00
sg286
I00
sg287
L-170141183460469231731687303715884105728L
sg288
I00
sg289
I00
sg290
I00
sg291
I00
sg292
I00
sg308
VTimer__Time
p1579
sg293
I00
sg294
I00
sg295
(lp1580
(Vyear
p1581
L31536000000000000000L
tp1582
a(Vday
p1583
L86400000000000000L
tp1584
a(Vhour
p1585
L3600000000000000L
tp1586
a(Vmin
p1587
L60000000000000L
tp1588
a(Vs
L1000000000000L
tp1589
a(Vms
p1590
I1000000000
tp1591
a(Vus
p1592
I1000000
tp1593
a(Vns
p1594
I1000
tp1595
a(Vps
p1596
I1
tp1597
asg296
I01
sg297
I00
sg298
I00
sg299
L170141183460469231731687303715884105727L
sg301
I00
sg302
I00
sg303
I00
sg304
I00
sg305
L-170141183460469231731687303715884105728L
sg306
I00
sg307
I01
sbsg313
I00
sg314
NsbsI23
(iLUT
LUTEntry
p1598
(dp1599
g4
Nsg5
VTime
p1600
sg7
I23
sg8
Nsg9
I00
sg10
I00
sg11
g12
sg13
Nsg14
(iM3Types
M3IntegerType
p1601
(dp1602
g17
I00
sg18
I00
sg19
I00
sg20
I00
sg21
I00
sg22
I00
sg23
I01
sg24
I01
sg280
I483
sg281
I00
sg282
I00
sg283
I00
sg284
I00
sg285
I00
sg286
I00
sg287
L-170141183460469231731687303715884105728L
sg288
I00
sg289
I00
sg290
I00
sg291
I00
sg292
I00
sg308
VTimer__Time
p1603
sg293
I00
sg294
I00
sg295
(lp1604
(Vyear
L31536000000000000000L
tp1605
a(Vday
L86400000000000000L
tp1606
a(Vhour
L3600000000000000L
tp1607
a(Vmin
L60000000000000L
tp1608
a(Vs
L1000000000000L
tp1609
a(Vms
I1000000000
tp1610
a(Vus
I1000000
tp1611
a(Vns
I1000
tp1612
a(Vps
I1
tp1613
asg296
I01
sg297
I00
sg298
I00
sg299
L170141183460469231731687303715884105727L
sg301
I00
sg302
I00
sg303
I00
sg304
I00
sg305
L-170141183460469231731687303715884105728L
sg306
I00
sg307
I01
sbsg313
I00
sg314
NsbsI24
(iLUT
LUTEntry
p1614
(dp1615
g4
Nsg5
VTime
p1616
sg7
I24
sg8
Nsg9
I00
sg10
I00
sg11
g12
sg13
Nsg14
(iM3Types
M3IntegerType
p1617
(dp1618
g17
I00
sg18
I00
sg19
I00
sg20
I00
sg21
I00
sg22
I00
sg23
I01
sg24
I01
sg280
I504
sg281
I00
sg282
I00
sg283
I00
sg284
I00
sg285
I00
sg286
I00
sg287
L-170141183460469231731687303715884105728L
sg288
I00
sg289
I00
sg290
I00
sg291
I00
sg292
I00
sg308
VTimer__Time
p1619
sg293
I00
sg294
I00
sg295
(lp1620
(Vyear
L31536000000000000000L
tp1621
a(Vday
L86400000000000000L
tp1622
a(Vhour
L3600000000000000L
tp1623
a(Vmin
L60000000000000L
tp1624
a(Vs
L1000000000000L
tp1625
a(Vms
I1000000000
tp1626
a(Vus
I1000000
tp1627
a(Vns
I1000
tp1628
a(Vps
I1
tp1629
asg296
I01
sg297
I00
sg298
I00
sg299
L170141183460469231731687303715884105727L
sg301
I00
sg302
I00
sg303
I00
sg304
I00
sg305
L-170141183460469231731687303715884105728L
sg306
I00
sg307
I01
sbsg313
I00
sg314
NsbsI25
(iLUT
LUTEntry
p1630
(dp1631
g4
Nsg5
VColor
p1632
sg7
I25
sg8
Nsg9
I00
sg10
I00
sg11
g12
sg13
Nsg14
(iM3Types
M3EnumType
p1633
(dp1634
g17
I00
sg18
I00
sg19
I00
sg20
I00
sg21
I00
sg22
I00
sg11
g320
sg23
I01
sg24
I00
sg280
I524
sg281
I00
sg282
I00
sg321
(dp1635
Vblue
p1636
I1
sVgreen
p1637
I2
sVred
p1638
I0
ssg283
I00
sg284
I01
sg285
I00
sg286
I00
sg287
I0
sg288
I00
sg289
I00
sg326
I0
sg290
I00
sg291
I00
sg292
I00
sg308
VInputTypes__Color
p1639
sg293
I00
sg294
I00
sg328
g1633
sg296
I01
sg297
I00
sg298
I00
sg299
g1637
sg301
I00
sg302
I00
sg303
I00
sg329
(lp1640
g1638
ag1636
ag1637
asg331
I2
sg304
I00
sg305
g1638
sg306
I00
sg307
I00
sbsg313
I00
sg314
NsbsI26
(iLUT
LUTEntry
p1641
(dp1642
g4
Nsg5
VVector
p1643
sg7
I26
sg8
Nsg9
I00
sg10
I00
sg11
g12
sg13
Nsg14
(iM3Types
M3ArrayType
p1644
(dp1645
g17
I00
sg18
I00
sg19
I00
sg20
I00
sg21
I00
sg22
I00
sg23
I01
sg24
I00
sg280
I525
sg281
I00
sg282
I00
sg283
I00
sg284
I00
sg285
I00
sg286
I00
sS'elementType'
p1646
g278
sg288
I00
sg289
I00
sg290
I01
sg291
I00
sg292
I01
sg308
VInputTypes__Vector
p1647
sg293
I00
sg294
I00
sg296
I00
sg297
I00
sg298
I00
sS'indexType'
p1648
Nsg301
I00
sg302
I00
sg303
I00
sg304
I00
sg306
I00
sg307
I00
sbsg313
I00
sg314
NsbsI27
(iLUT
LUTEntry
p1649
(dp1650
g4
Nsg5
VMyRecType
p1651
sg7
I27
sg8
Nsg9
I00
sg10
I00
sg11
g12
sg13
(iM3Types
M3RecordType
p1652
(dp1653
g17
I00
sg18
I00
sg19
I00
sg20
I01
sg21
I00
sg22
I00
sg23
I01
sg24
I00
sg25
(dp1654
Vcolor
p1655
(iM3Types
Field
p1656
(dp1657
g8
Nsg30
(iRuleNodes
NullNode
p1658
(dp1659
g33
VconstExpr
p1660
sg35
(lp1661
sg37
(iRuleNodes
FieldNode
p1662
(dp1663
g33
Vanon
p1664
sg41
(iRuleNodes
NullNode
p1665
(dp1666
g33
Vass
p1667
sg35
(lp1668
sg37
g1662
sg46
I01
sg47
I00
sg48
(lp1669
sg50
V53
p1670
sbsg35
(lp1671
(iRuleNodes
IdListNode
p1672
(dp1673
g33
Vidlist
p1674
sg35
(lp1675
(iRuleNodes
IdNode
p1676
(dp1677
g33
Vanon
p1678
sg35
(lp1679
sg37
g1672
sg46
I01
sg61
g1655
sg62
V%0A        
p1680
sg64
V141
p1681
sg47
I00
sg48
(lp1682
g61
ag64
ag62
asg50
V48
p1683
sbasg37
g1662
sg46
I01
sg47
I00
sg48
(lp1684
sg50
V47
p1685
sba(iRuleNodes
TokNode
p1686
(dp1687
g33
Vcol
p1688
sg35
(lp1689
sg37
g1662
sg46
I01
sg64
V147
p1690
sg62
V 
sg75
V:
sg47
I00
sg48
(lp1691
g75
ag64
ag62
asg50
V49
p1692
sba(iRuleNodes
TypeNameNode
p1693
(dp1694
g33
Vtipe
p1695
sg81
(iRuleNodes
QualIdNode
p1696
(dp1697
g33
VqualId
p1698
sg35
(lp1699
(iRuleNodes
IdNode
p1700
(dp1701
g33
Vanon
p1702
sg35
(lp1703
sg37
g1696
sg46
I01
sg61
VColor
p1704
sg62
V 
sg64
V149
p1705
sg47
I00
sg48
(lp1706
g61
ag64
ag62
asg50
V52
p1707
sbasg37
g1693
sg46
I01
sg47
I00
sg48
(lp1708
sg50
V51
p1709
sbsg35
(lp1710
g1696
asg37
g1662
sg46
I01
sg47
I00
sg48
(lp1711
sg50
V50
p1712
sbag1665
ag1658
asg99
g1672
sg37
(iRuleNodes
FieldListNode
p1713
(dp1714
g33
Vfields
p1715
sg35
(lp1716
g1662
a(iRuleNodes
SepNode
p1717
(dp1718
g33
Vanon
p1719
sg35
(lp1720
sg37
g1713
sg46
I01
sg64
V155
p1721
sg62
V 
sg75
V;
sg47
I00
sg48
(lp1722
g75
ag64
ag62
asg50
V55
p1723
sba(iRuleNodes
FieldNode
p1724
(dp1725
g33
Vanon
p1726
sg41
(iRuleNodes
NullNode
p1727
(dp1728
g33
Vass
p1729
sg35
(lp1730
sg37
g1724
sg46
I01
sg47
I00
sg48
(lp1731
sg50
V63
p1732
sbsg35
(lp1733
(iRuleNodes
IdListNode
p1734
(dp1735
g33
Vidlist
p1736
sg35
(lp1737
(iRuleNodes
IdNode
p1738
(dp1739
g33
Vanon
p1740
sg35
(lp1741
sg37
g1734
sg46
I01
sg61
Vvector
p1742
sg62
V%0A        
p1743
sg64
V166
p1744
sg47
I00
sg48
(lp1745
g61
ag64
ag62
asg50
V58
p1746
sbasg37
g1724
sg46
I01
sg47
I00
sg48
(lp1747
sg50
V57
p1748
sba(iRuleNodes
TokNode
p1749
(dp1750
g33
Vcol
p1751
sg35
(lp1752
sg37
g1724
sg46
I01
sg64
V173
p1753
sg62
V 
sg75
V:
sg47
I00
sg48
(lp1754
g75
ag64
ag62
asg50
V59
p1755
sba(iRuleNodes
TypeNameNode
p1756
(dp1757
g33
Vtipe
p1758
sg81
(iRuleNodes
QualIdNode
p1759
(dp1760
g33
VqualId
p1761
sg35
(lp1762
(iRuleNodes
IdNode
p1763
(dp1764
g33
Vanon
p1765
sg35
(lp1766
sg37
g1759
sg46
I01
sg61
VVector
p1767
sg62
V 
sg64
V175
p1768
sg47
I00
sg48
(lp1769
g61
ag64
ag62
asg50
V62
p1770
sbasg37
g1756
sg46
I01
sg47
I00
sg48
(lp1771
sg50
V61
p1772
sbsg35
(lp1773
g1759
asg37
g1724
sg46
I01
sg47
I00
sg48
(lp1774
sg50
V60
p1775
sbag1727
a(iRuleNodes
NullNode
p1776
(dp1777
g33
VconstExpr
p1778
sg35
(lp1779
sg37
g1724
sg46
I01
sg47
I00
sg48
(lp1780
sg50
V64
p1781
sbasg99
g1734
sg37
g1713
sg46
I01
sg256
g1756
sg272
g1749
sg273
g1776
sg47
I00
sg48
(lp1782
sg50
V56
p1783
sba(iRuleNodes
SepNode
p1784
(dp1785
g33
Vanon
p1786
sg35
(lp1787
sg37
g1713
sg46
I01
sg64
V182
p1788
sg62
V 
sg75
V;
sg47
I00
sg48
(lp1789
g75
ag64
ag62
asg50
V65
p1790
sbasg37
(iRuleNodes
RecordNode
p1791
(dp1792
g33
Vtipe
p1793
sg35
(lp1794
(iRuleNodes
KeyWordNode
p1795
(dp1796
g33
Vkwr
p1797
sg35
(lp1798
sg37
g1791
sg46
I01
sg64
V125
p1799
sg62
V 
sg75
VRECORD
p1800
sg47
I00
sg48
(lp1801
g75
ag64
ag62
asg50
V44
p1802
sbag1713
a(iRuleNodes
KeyWordNode
p1803
(dp1804
g33
Vkwe
p1805
sg35
(lp1806
sg37
g1791
sg46
I01
sg64
V190
p1807
sg62
V%0A     
p1808
sg75
VEND
p1809
sg47
I00
sg48
(lp1810
g75
ag64
ag62
asg50
V66
p1811
sbasg132
g1803
sg37
(iRuleNodes
TypeDeclNode
p1812
(dp1813
g33
Vanon
p1814
sg35
(lp1815
(iRuleNodes
IdNode
p1816
(dp1817
g33
Vid
p1818
sg35
(lp1819
sg37
g1812
sg46
I01
sg61
g1651
sg62
V 
sg64
V113
p1820
sg47
I00
sg48
(lp1821
g61
ag64
ag62
asg50
V41
p1822
sba(iRuleNodes
OpNode
p1823
(dp1824
g33
Vsign
p1825
sg35
(lp1826
sg37
g1812
sg46
I01
sg64
V123
p1827
sg62
V 
sg75
V=
sg47
I00
sg48
(lp1828
g75
ag64
ag62
asg50
V42
p1829
sbag1791
asg37
(iRuleNodes
TypeDeclsListNode
p1830
(dp1831
g33
VtypeList
p1832
sg35
(lp1833
g1812
a(iRuleNodes
SepNode
p1834
(dp1835
g33
Vanon
p1836
sg35
(lp1837
sg37
g1830
sg46
I01
sg64
V194
p1838
sg62
V 
sg75
V;
sg47
I00
sg48
(lp1839
g75
ag64
ag62
asg50
V67
p1840
sbasg37
(iRuleNodes
TypeDeclsNode
p1841
(dp1842
g33
Vanon
p1843
sg35
(lp1844
(iRuleNodes
KeyWordNode
p1845
(dp1846
g33
Vkwt
p1847
sg35
(lp1848
sg37
g1841
sg46
I01
sg64
V108
p1849
sg62
V%0A     
p1850
sg75
VTYPE
p1851
sg47
I00
sg48
(lp1852
g75
ag64
ag62
asg50
V38
p1853
sbag1830
asg37
(iRuleNodes
InterfaceDeclListNode
p1854
(dp1855
g33
Vdecls
p1856
sg35
(lp1857
(iRuleNodes
TypeDeclsNode
p1858
(dp1859
g33
Vanon
p1860
sg35
(lp1861
(iRuleNodes
KeyWordNode
p1862
(dp1863
g33
Vkwt
p1864
sg35
(lp1865
sg37
g1858
sg46
I01
sg64
V29
p1866
sg62
V%0A     
p1867
sg75
VTYPE
p1868
sg47
I00
sg48
(lp1869
g75
ag64
ag62
asg50
V8
sba(iRuleNodes
TypeDeclsListNode
p1870
(dp1871
g33
VtypeList
p1872
sg35
(lp1873
(iRuleNodes
TypeDeclNode
p1874
(dp1875
g33
Vanon
p1876
sg35
(lp1877
(iRuleNodes
IdNode
p1878
(dp1879
g33
Vid
p1880
sg35
(lp1881
sg37
g1874
sg46
I01
sg61
g1632
sg62
V 
sg64
V34
p1882
sg47
I00
sg48
(lp1883
g61
ag64
ag62
asg50
V11
p1884
sba(iRuleNodes
OpNode
p1885
(dp1886
g33
Vsign
p1887
sg35
(lp1888
sg37
g1874
sg46
I01
sg64
V40
p1889
sg62
V 
sg75
V=
sg47
I00
sg48
(lp1890
g75
ag64
ag62
asg50
V12
p1891
sba(iRuleNodes
EnumNode
p1892
(dp1893
g33
Vtipe
p1894
sg35
(lp1895
(iRuleNodes
TokNode
p1896
(dp1897
g33
Vlcr
p1898
sg35
(lp1899
sg37
g1892
sg46
I01
sg64
V42
p1900
sg62
V 
sg75
V{
sg47
I00
sg48
(lp1901
g75
ag64
ag62
asg50
V14
p1902
sba(iRuleNodes
IdListNode
p1903
(dp1904
g33
Vidlist
p1905
sg35
(lp1906
(iRuleNodes
IdNode
p1907
(dp1908
g33
Vanon
p1909
sg35
(lp1910
sg37
g1903
sg46
I01
sg61
g1638
sg62
V
sg64
V43
p1911
sg47
I00
sg48
(lp1912
g61
ag64
ag62
asg50
V16
p1913
sba(iRuleNodes
SepNode
p1914
(dp1915
g33
Vanon
p1916
sg35
(lp1917
sg37
g1903
sg46
I01
sg64
V46
p1918
sg62
V
sg75
V,
sg47
I00
sg48
(lp1919
g75
ag64
ag62
asg50
V17
p1920
sba(iRuleNodes
IdNode
p1921
(dp1922
g33
Vanon
p1923
sg35
(lp1924
sg37
g1903
sg46
I01
sg61
g1636
sg62
V 
sg64
V48
p1925
sg47
I00
sg48
(lp1926
g61
ag64
ag62
asg50
V18
p1927
sba(iRuleNodes
SepNode
p1928
(dp1929
g33
Vanon
p1930
sg35
(lp1931
sg37
g1903
sg46
I01
sg64
V52
p1932
sg62
V
sg75
V,
sg47
I00
sg48
(lp1933
g75
ag64
ag62
asg50
V19
p1934
sba(iRuleNodes
IdNode
p1935
(dp1936
g33
Vanon
p1937
sg35
(lp1938
sg37
g1903
sg46
I01
sg61
g1637
sg62
V 
sg64
V54
p1939
sg47
I00
sg48
(lp1940
g61
ag64
ag62
asg50
V20
p1941
sbasg37
g1892
sg46
I01
sg47
I00
sg48
(lp1942
sg50
V15
p1943
sba(iRuleNodes
TokNode
p1944
(dp1945
g33
Vrcr
p1946
sg35
(lp1947
sg37
g1892
sg46
I01
sg64
V59
p1948
sg62
V
sg75
V}
sg47
I00
sg48
(lp1949
g75
ag64
ag62
asg50
V21
p1950
sbasS'lcr'
p1951
g1896
sg99
g1903
sg37
g1874
sg7
I25
sg46
I01
sS'rcr'
p1952
g1944
sg262
I01
sg264
I01
sg47
I00
sg265
g266
sg48
(lp1953
sg268
g1633
sg50
V13
p1954
sbasg37
g1870
sg46
I01
sg256
g1892
sg257
g1878
sg47
I00
sg48
(lp1955
sg259
g1885
sg50
V10
p1956
sba(iRuleNodes
SepNode
p1957
(dp1958
g33
Vanon
p1959
sg35
(lp1960
sg37
g1870
sg46
I01
sg64
V61
p1961
sg62
V 
sg75
V;
sg47
I00
sg48
(lp1962
g75
ag64
ag62
asg50
V22
p1963
sbasg37
g1858
sg46
I01
sg47
I00
sg48
(lp1964
sg50
V9
sbasg37
g1854
sg252
g1870
sg46
I01
sg253
g1862
sg47
I00
sg48
(lp1965
sg50
V7
sba(iRuleNodes
TypeDeclsNode
p1966
(dp1967
g33
Vanon
p1968
sg35
(lp1969
(iRuleNodes
KeyWordNode
p1970
(dp1971
g33
Vkwt
p1972
sg35
(lp1973
sg37
g1966
sg46
I01
sg64
V69
p1974
sg62
V%0A     
p1975
sg75
VTYPE
p1976
sg47
I00
sg48
(lp1977
g75
ag64
ag62
asg50
V24
p1978
sba(iRuleNodes
TypeDeclsListNode
p1979
(dp1980
g33
VtypeList
p1981
sg35
(lp1982
(iRuleNodes
TypeDeclNode
p1983
(dp1984
g33
Vanon
p1985
sg35
(lp1986
(iRuleNodes
IdNode
p1987
(dp1988
g33
Vid
p1989
sg35
(lp1990
sg37
g1983
sg46
I01
sg61
g1643
sg62
V 
sg64
V74
p1991
sg47
I00
sg48
(lp1992
g61
ag64
ag62
asg50
V27
p1993
sba(iRuleNodes
OpNode
p1994
(dp1995
g33
Vsign
p1996
sg35
(lp1997
sg37
g1983
sg46
I01
sg64
V81
p1998
sg62
V 
sg75
V=
sg47
I00
sg48
(lp1999
g75
ag64
ag62
asg50
V28
p2000
sba(iRuleNodes
ArrayNode
p2001
(dp2002
g33
Vtipe
p2003
sS'kwa'
p2004
(iRuleNodes
KeyWordNode
p2005
(dp2006
g33
Vkwa
p2007
sg35
(lp2008
sg37
g2001
sg46
I01
sg64
V83
p2009
sg62
V 
sg75
VARRAY
p2010
sg47
I00
sg48
(lp2011
g75
ag64
ag62
asg50
V30
p2012
sbsg35
(lp2013
g2005
a(iRuleNodes
TypeListNode
p2014
(dp2015
g33
VtypeList
p2016
sg35
(lp2017
sg37
g2001
sg46
I01
sg47
I00
sg48
(lp2018
sg50
V31
p2019
sba(iRuleNodes
KeyWordNode
p2020
(dp2021
g33
Vkwo
p2022
sg35
(lp2023
sg37
g2001
sg46
I01
sg64
V89
p2024
sg62
V 
sg75
VOF
p2025
sg47
I00
sg48
(lp2026
g75
ag64
ag62
asg50
V32
p2027
sba(iRuleNodes
TypeNameNode
p2028
(dp2029
g33
Vtipe
p2030
sg81
(iRuleNodes
QualIdNode
p2031
(dp2032
g33
VqualId
p2033
sg35
(lp2034
(iRuleNodes
IdNode
p2035
(dp2036
g33
Vanon
p2037
sg35
(lp2038
sg37
g2031
sg46
I01
sg61
VINTEGER
p2039
sg62
V 
sg64
V92
p2040
sg47
I00
sg48
(lp2041
g61
ag64
ag62
asg50
V35
p2042
sbasg37
g2028
sg46
I01
sg47
I00
sg48
(lp2043
sg50
V34
p2044
sbsg35
(lp2045
g2031
asg37
g2001
sg46
I01
sg47
I00
sg48
(lp2046
sg50
V33
p2047
sbasg37
g1983
sg7
I26
sg252
g2014
sg46
I01
sg256
g2028
sS'kwo'
p2048
g2020
sg262
I01
sg264
I01
sg47
I00
sg265
g266
sg48
(lp2049
sg268
g1644
sg50
V29
p2050
sbasg37
g1979
sg46
I01
sg256
g2001
sg257
g1987
sg47
I00
sg48
(lp2051
sg259
g1994
sg50
V26
p2052
sba(iRuleNodes
SepNode
p2053
(dp2054
g33
Vanon
p2055
sg35
(lp2056
sg37
g1979
sg46
I01
sg64
V100
p2057
sg62
V 
sg75
V;
sg47
I00
sg48
(lp2058
g75
ag64
ag62
asg50
V36
p2059
sbasg37
g1966
sg46
I01
sg47
I00
sg48
(lp2060
sg50
V25
p2061
sbasg37
g1854
sg252
g1979
sg46
I01
sg253
g1970
sg47
I00
sg48
(lp2062
sg50
V23
p2063
sbag1841
asg179
(iLUT
LUT
p2064
(dp2065
g182
g1854
sg183
Nsg184
(dp2066
g1632
g1630
sg1643
g1641
sg1651
g1649
ssbsg37
(iRuleNodes
InterfaceNode
p2067
(dp2068
g33
Vanon
p2069
sg189
(iRuleNodes
IdNode
p2070
(dp2071
g33
Vmodname
p2072
sg35
(lp2073
sg37
g2067
sg46
I01
sg61
VInputTypes
p2074
sg62
V 
sg64
V10
p2075
sg47
I00
sg48
(lp2076
g61
ag64
ag62
asg50
V3
sbsg35
(lp2077
(iRuleNodes
KeyWordNode
p2078
(dp2079
g33
Vkwi
p2080
sg35
(lp2081
sg37
g2067
sg46
I01
sg64
V0
sg62
V
sg75
VINTERFACE
p2082
sg47
I00
sg48
(lp2083
g75
ag64
ag62
asg50
V2
sbag2070
a(iRuleNodes
SepNode
p2084
(dp2085
g33
Vts
p2086
sg35
(lp2087
sg37
g2067
sg46
I01
sg64
V21
p2088
sg62
V 
sg75
V;
sg47
I00
sg48
(lp2089
g75
ag64
ag62
asg50
V4
sba(iRuleNodes
ImportListNode
p2090
(dp2091
g33
Vimports
p2092
sg35
(lp2093
sg37
g2067
sg46
I01
sg47
I00
sg48
(lp2094
sg50
V5
sbag1854
a(iRuleNodes
KeyWordNode
p2095
(dp2096
g33
Vkwe
p2097
sg35
(lp2098
sg37
g2067
sg46
I01
sg64
V197
p2099
sg62
V%0A
p2100
sg75
VEND
p2101
sg47
I00
sg48
(lp2102
g75
ag64
ag62
asg50
V68
p2103
sba(iRuleNodes
IdNode
p2104
(dp2105
g33
VendId
p2106
sg35
(lp2107
sg37
g2067
sg46
I01
sg61
VInputTypes
p2108
sg62
V 
sg64
V201
p2109
sg47
I00
sg48
(lp2110
g61
ag64
ag62
asg50
V69
p2111
sba(iRuleNodes
SepNode
p2112
(dp2113
g33
Vtd
p2114
sg35
(lp2115
sg37
g2067
sg46
I01
sg64
V211
p2116
sg62
V
sg75
V.
sg47
I00
sg48
(lp2117
g75
ag64
ag62
asg50
V70
p2118
sbasg132
g2095
sg37
Nsg239
g2078
sg240
g2090
sg46
I01
sg241
g2084
sg242
V/home/mark/m3/doc/InputTypes.i3
p2119
sg244
g2112
sg245
g2104
sg47
I01
sg48
(lp2120
g242
asg247
g1854
sg50
V1
sg179
(iLUT
LUT
p2121
(dp2122
g182
g2067
sg183
Nsg184
(dp2123
sbsbsg46
I01
sg47
I01
sg48
(lp2124
sg50
V6
sbsg252
g1830
sg46
I01
sg253
g1845
sg47
I00
sg48
(lp2125
sg50
V37
p2126
sbsg46
I01
sg47
I00
sg48
(lp2127
sg50
V39
p2128
sbsg46
I01
sg256
g1791
sg257
g1816
sg47
I00
sg48
(lp2129
sg259
g1823
sg50
V40
p2130
sbsg7
I27
sg261
g1713
sg46
I01
sg262
I01
sg263
g1795
sg264
I01
sg47
I00
sg265
g266
sg48
(lp2131
sg268
g1652
sg50
V43
p2132
sbsg46
I01
sg47
I00
sg48
(lp2133
sg50
V45
p2134
sbsg46
I01
sg256
g1693
sg272
g1686
sg273
g1658
sg47
I00
sg48
(lp2135
sg50
V46
p2136
sbsg46
I01
sg47
I00
sg48
(lp2137
sg50
V54
p2138
sbsg256
g1633
sg5
g1655
sbsg1742
(iM3Types
Field
p2139
(dp2140
g8
Nsg30
g1776
sg256
g1644
sg5
g1742
sbssg280
I526
sg281
I00
sg282
I00
sg283
I00
sg284
I00
sg285
I00
sg286
I00
sg288
I00
sg289
I00
sg290
I00
sg291
I00
sg292
I00
sg308
VInputTypes__MyRecType
p2141
sg293
I00
sg294
I00
sg310
(lp2142
g1655
ag1742
asg296
I00
sg297
I00
sg298
I00
sg301
I00
sg261
(lp2143
g1656
ag2139
asg302
I00
sg303
I00
sg304
I00
sg306
I00
sg307
I00
sbsg14
g1652
sg313
I00
sg314
NsbsI28
(iLUT
LUTEntry
p2144
(dp2145
g4
Nsg5
Vvk
p2146
sg7
I28
sg8
Nsg9
I00
sg10
I00
sg11
g12
sg13
Nsg14
(iM3Types
M3EnumType
p2147
(dp2148
g17
I00
sg18
I00
sg19
I00
sg20
I00
sg21
I00
sg22
I00
sg11
g320
sg23
I01
sg24
I00
sg280
I541
sg281
I00
sg282
I00
sg321
(dp2149
Vcar
p2150
I0
sVtruck
p2151
I1
sVmotorcycle
p2152
I2
ssg283
I00
sg284
I01
sg285
I00
sg286
I00
sg287
I0
sg288
I00
sg289
I00
sg326
I0
sg290
I00
sg291
I00
sg292
I00
sg308
VTraffic__vk
p2153
sg293
I00
sg294
I00
sg328
g2147
sg296
I01
sg297
I00
sg298
I00
sg299
g2152
sg301
I00
sg302
I00
sg303
I00
sg329
(lp2154
g2150
ag2151
ag2152
asg331
I2
sg304
I00
sg305
g2150
sg306
I00
sg307
I00
sbsg313
I00
sg314
NsbsI29
(iLUT
LUTEntry
p2155
(dp2156
g4
Nsg5
VMetricWeight
p2157
sg7
I29
sg8
Nsg9
I00
sg10
I00
sg11
g12
sg13
Nsg14
(iM3Types
M3IntegerType
p2158
(dp2159
g17
I00
sg18
I00
sg19
I00
sg20
I00
sg21
I00
sg22
I00
sg23
I01
sg24
I01
sg280
I542
sg281
I00
sg282
I00
sg283
I00
sg284
I00
sg285
I00
sg286
I00
sg287
L-170141183460469231731687303715884105728L
sg288
I00
sg289
I00
sg290
I00
sg291
I00
sg292
I00
sg308
VTraffic__MetricWeight
p2160
sg293
I00
sg294
I00
sg295
(lp2161
(Vtonne
p2162
I1000000
tp2163
a(Vkg
p2164
I1000
tp2165
a(Vg
I1
tp2166
asg296
I01
sg297
I00
sg298
I00
sg299
L170141183460469231731687303715884105727L
sg301
I00
sg302
I00
sg303
I00
sg304
I00
sg305
L-170141183460469231731687303715884105728L
sg306
I00
sg307
I01
sbsg313
I00
sg314
NsbsI30
(iLUT
LUTEntry
p2167
(dp2168
g4
Nsg5
Vvehicle
p2169
sg7
I30
sg8
Nsg9
I00
sg10
I00
sg11
g12
sg13
Nsg14
(iM3Types
M3VariantRecordType
p2170
(dp2171
g17
I00
sg18
I00
sg19
I00
sg20
I01
sg21
I00
sg22
I00
sg23
I01
sg24
I00
sg25
(dp2172
Vkind
p2173
(iM3Types
Field
p2174
(dp2175
g8
Nsg30
(iRuleNodes
NullNode
p2176
(dp2177
g33
VconstExpr
p2178
sg35
(lp2179
sg37
(iRuleNodes
FieldNode
p2180
(dp2181
g33
VtagField
p2182
sg41
(iRuleNodes
NullNode
p2183
(dp2184
g33
Vass
p2185
sg35
(lp2186
sg37
g2180
sg46
I01
sS'lineno'
p2187
I7
sg47
I00
sg48
(lp2188
sg50
V67
p2189
sbsg35
(lp2190
(iRuleNodes
IdListNode
p2191
(dp2192
g33
Vidlist
p2193
sg35
(lp2194
(iRuleNodes
IdNode
p2195
(dp2196
g33
Vanon
p2197
sg35
(lp2198
sg37
g2191
sg46
I01
sg61
g2173
sg62
V 
sg64
V153
p2199
sg2187
I7
sg47
I00
sg48
(lp2200
g61
ag64
ag62
asg50
V62
p2201
sbasg37
g2180
sg46
I01
sg2187
I7
sg47
I00
sg48
(lp2202
sg50
V61
p2203
sba(iRuleNodes
TokNode
p2204
(dp2205
g33
Vcol
p2206
sg35
(lp2207
sg37
g2180
sg46
I01
sg64
V158
p2208
sg62
V 
sg75
V:
sg2187
I7
sg47
I00
sg48
(lp2209
g75
ag64
ag62
asg50
V63
p2210
sba(iRuleNodes
TypeNameNode
p2211
(dp2212
g33
Vtipe
p2213
sg81
(iRuleNodes
QualIdNode
p2214
(dp2215
g33
VqualId
p2216
sg35
(lp2217
(iRuleNodes
IdNode
p2218
(dp2219
g33
Vanon
p2220
sg35
(lp2221
sg37
g2214
sg46
I01
sg61
Vvk
p2222
sg62
V 
sg64
V160
p2223
sg2187
I7
sg47
I00
sg48
(lp2224
g61
ag64
ag62
asg50
V66
p2225
sbasg37
g2211
sg46
I01
sg2187
I7
sg47
I00
sg48
(lp2226
sg50
V65
p2227
sbsg35
(lp2228
g2214
asg37
g2180
sg46
I01
sg2187
I7
sg47
I00
sg48
(lp2229
sg50
V64
p2230
sbag2183
ag2176
asg99
g2191
sg37
(iRuleNodes
VariantRecordNode
p2231
(dp2232
S'kwc'
p2233
(iRuleNodes
KeyWordNode
p2234
(dp2235
g33
Vkwc
p2236
sg35
(lp2237
sg37
g2231
sg46
I01
sg64
V148
p2238
sg62
V %0A    
p2239
sg75
VCASE
p2240
sg2187
I7
sg47
I00
sg48
(lp2241
g75
ag64
ag62
asg50
V59
p2242
sbsg132
(iRuleNodes
KeyWordNode
p2243
(dp2244
g33
Vkwe
p2245
sg35
(lp2246
sg37
g2231
sg46
I01
sg64
V389
p2247
sg62
V%0A  
p2248
sg75
VEND
p2249
sg2187
I16
sg47
I00
sg48
(lp2250
g75
ag64
ag62
asg50
V193
p2251
sbsS'sfields'
p2252
(iRuleNodes
FieldListNode
p2253
(dp2254
g33
Vsfields
p2255
sg35
(lp2256
(iRuleNodes
FieldNode
p2257
(dp2258
g33
Vanon
p2259
sg41
(iRuleNodes
NullNode
p2260
(dp2261
g33
Vass
p2262
sg35
(lp2263
sg37
g2257
sg46
I01
sg2187
I15
sg47
I00
sg48
(lp2264
sg50
V190
p2265
sbsg35
(lp2266
(iRuleNodes
IdListNode
p2267
(dp2268
g33
Vidlist
p2269
sg35
(lp2270
(iRuleNodes
IdNode
p2271
(dp2272
g33
Vanon
p2273
sg35
(lp2274
sg37
g2267
sg46
I01
sg61
VtopSpeed
p2275
sg62
V%0A    
p2276
sg64
V363
p2277
sg2187
I15
sg47
I00
sg48
(lp2278
g61
ag64
ag62
asg50
V170
p2279
sbasg37
g2257
sg46
I01
sg2187
I15
sg47
I00
sg48
(lp2280
sg50
V169
p2281
sba(iRuleNodes
TokNode
p2282
(dp2283
g33
Vcol
p2284
sg35
(lp2285
sg37
g2257
sg46
I01
sg64
V372
p2286
sg62
V 
sg75
V:
sg2187
I15
sg47
I00
sg48
(lp2287
g75
ag64
ag62
asg50
V171
p2288
sba(iRuleNodes
SubrangeNode
p2289
(dp2290
g33
Vtipe
p2291
sg35
(lp2292
(iRuleNodes
TokNode
p2293
(dp2294
g33
Vlsq
p2295
sg35
(lp2296
sg37
g2289
sg46
I01
sg64
V374
p2297
sg62
V 
sg75
V[
sg2187
I15
sg47
I00
sg48
(lp2298
g75
ag64
ag62
asg50
V173
p2299
sba(iRuleNodes
ConstExprNode
p2300
(dp2301
g33
Vconst1
p2302
sg35
(lp2303
(iRuleNodes
ExprNode
p2304
(dp2305
g33
Vexpr
p2306
sg35
(lp2307
(iRuleNodes
NumberNode
p2308
(dp2309
g33
Vexpr
p2310
sS'scaleMult'
p2311
I1
sg35
(lp2312
(iRuleNodes
IntNode
p2313
(dp2314
g33
VintVal
p2315
sg35
(lp2316
sg37
g2308
sg47
I00
sg46
I01
sg62
V
sg64
V375
p2317
sg2187
I15
sS'intname'
p2318
V30
p2319
sg48
(lp2320
g2318
ag64
ag62
asg50
V177
p2321
sba(iRuleNodes
NullNode
p2322
(dp2323
g33
Vtd
p2324
sg35
(lp2325
sg37
g2308
sg46
I01
sg2187
I15
sg47
I00
sg48
(lp2326
sg50
V178
p2327
sba(iRuleNodes
NullNode
p2328
(dp2329
g33
VnumberRest
p2330
sg35
(lp2331
sg37
g2308
sg46
I01
sg2187
I15
sg47
I00
sg48
(lp2332
sg50
V179
p2333
sba(iRuleNodes
NullNode
p2334
(dp2335
g33
Vscaling
p2336
sg35
(lp2337
sg37
g2308
sg46
I01
sg2187
I15
sg47
I00
sg48
(lp2338
sg50
V180
p2339
sbasg37
g2304
sS'intVal'
p2340
g2313
sg46
I01
sS'numberRest'
p2341
g2328
sg295
g2334
sg2187
I15
sg47
I00
sg48
(lp2342
sg244
g2322
sg50
V176
p2343
sS'scaleType'
p2344
NsbasS'cachedType'
p2345
g278
sg37
g2300
sS'expr'
p2346
g2308
sg46
I01
sS'exprType'
p2347
g278
sg2187
I15
sg47
I00
sg48
(lp2348
sg50
V175
p2349
sbasg2345
g278
sg37
g2289
sg2346
g2304
sg46
I01
sg2187
I15
sg47
I00
sg48
(lp2350
sg50
V174
p2351
sba(iRuleNodes
SepNode
p2352
(dp2353
g33
Vtdd
p2354
sg35
(lp2355
sg37
g2289
sg46
I01
sg64
V378
p2356
sg62
V 
sg75
V..
p2357
sg2187
I15
sg47
I00
sg48
(lp2358
g75
ag64
ag62
asg50
V181
p2359
sba(iRuleNodes
ConstExprNode
p2360
(dp2361
g33
Vconst2
p2362
sg35
(lp2363
(iRuleNodes
ExprNode
p2364
(dp2365
g33
Vexpr
p2366
sg35
(lp2367
(iRuleNodes
NumberNode
p2368
(dp2369
g33
Vexpr
p2370
sg2311
I1
sg35
(lp2371
(iRuleNodes
IntNode
p2372
(dp2373
g33
VintVal
p2374
sg35
(lp2375
sg37
g2368
sg47
I00
sg46
I01
sg62
V 
sg64
V381
p2376
sg2187
I15
sg2318
V300
p2377
sg48
(lp2378
g2318
ag64
ag62
asg50
V185
p2379
sba(iRuleNodes
NullNode
p2380
(dp2381
g33
Vtd
p2382
sg35
(lp2383
sg37
g2368
sg46
I01
sg2187
I15
sg47
I00
sg48
(lp2384
sg50
V186
p2385
sba(iRuleNodes
NullNode
p2386
(dp2387
g33
VnumberRest
p2388
sg35
(lp2389
sg37
g2368
sg46
I01
sg2187
I15
sg47
I00
sg48
(lp2390
sg50
V187
p2391
sba(iRuleNodes
NullNode
p2392
(dp2393
g33
Vscaling
p2394
sg35
(lp2395
sg37
g2368
sg46
I01
sg2187
I15
sg47
I00
sg48
(lp2396
sg50
V188
p2397
sbasg37
g2364
sg2340
g2372
sg46
I01
sg2341
g2386
sg295
g2392
sg2187
I15
sg47
I00
sg48
(lp2398
sg244
g2380
sg50
V184
p2399
sg2344
Nsbasg2345
g278
sg37
g2360
sg2346
g2368
sg46
I01
sg2347
g278
sg2187
I15
sg47
I00
sg48
(lp2400
sg50
V183
p2401
sbasg2345
g278
sg37
g2289
sg2346
g2364
sg46
I01
sg2187
I15
sg47
I00
sg48
(lp2402
sg50
V182
p2403
sba(iRuleNodes
TokNode
p2404
(dp2405
g33
Vrsq
p2406
sg35
(lp2407
sg37
g2289
sg46
I01
sg64
V384
p2408
sg62
V
sg75
V]
sg2187
I15
sg47
I00
sg48
(lp2409
g75
ag64
ag62
asg50
V189
p2410
sbasg37
g2257
sS'rsq'
p2411
g2404
sg47
I00
sg46
I01
sS'const2'
p2412
g2360
sS'tdd'
p2413
g2352
sg262
I01
sS'const1'
p2414
g2300
sg2187
I15
sS'lsq'
p2415
g2293
sg48
(lp2416
sg268
(iM3Types
M3IntegerType
p2417
(dp2418
g17
I00
sg18
I00
sg19
I00
sg20
I00
sg21
I00
sg22
I00
sg23
I01
sg24
I01
sg280
I546
sg281
I00
sg282
I00
sg283
I00
sg284
I00
sg285
I00
sg286
I00
sg287
I30
sg288
I00
sg289
I00
sg290
I00
sg291
I00
sg292
I00
sg293
I00
sg294
I00
sg295
Nsg296
I01
sg297
I00
sg298
I00
sg299
I300
sg301
I00
sg302
I00
sg303
I00
sg304
I00
sg305
I30
sg306
I00
sg307
I01
sbsg50
V172
p2419
sbag2260
a(iRuleNodes
NullNode
p2420
(dp2421
g33
VconstExpr
p2422
sg35
(lp2423
sg37
g2257
sg46
I01
sg2187
I15
sg47
I00
sg48
(lp2424
sg50
V191
p2425
sbasg99
g2267
sg37
g2253
sg46
I01
sg256
g2289
sg272
g2282
sg273
g2420
sg2187
I15
sg47
I00
sg48
(lp2426
sg50
V168
p2427
sba(iRuleNodes
SepNode
p2428
(dp2429
g33
Vanon
p2430
sg35
(lp2431
sg37
g2253
sg46
I01
sg64
V385
p2432
sg62
V
sg75
V;
sg2187
I15
sg47
I00
sg48
(lp2433
g75
ag64
ag62
asg50
V192
p2434
sbasg37
g2231
sg46
I01
sg2187
I15
sg47
I00
sg48
(lp2435
sg50
V167
p2436
sbsg46
I01
sg2048
(iRuleNodes
KeyWordNode
p2437
(dp2438
g33
Vkwo
p2439
sg35
(lp2440
sg37
g2231
sg46
I01
sg64
V163
p2441
sg62
V 
sg75
VOF
p2442
sg2187
I7
sg47
I00
sg48
(lp2443
g75
ag64
ag62
asg50
V69
p2444
sbsg263
(iRuleNodes
KeyWordNode
p2445
(dp2446
g33
Vkwr
p2447
sg35
(lp2448
sg37
g2231
sg46
I01
sg64
V136
p2449
sg62
V 
sg75
VRECORD
p2450
sg2187
I6
sg47
I00
sg48
(lp2451
g75
ag64
ag62
asg50
V58
p2452
sbsg33
Vtipe
p2453
sS'kwce'
p2454
(iRuleNodes
KeyWordNode
p2455
(dp2456
g33
Vkwce
p2457
sg35
(lp2458
sg37
g2231
sg46
I01
sg64
V354
p2459
sg62
V (* mandatory, shows we have not forgotten *) %0A    
p2460
sg75
VEND
p2461
sg2187
I14
sg47
I00
sg48
(lp2462
g75
ag64
ag62
asg50
V165
p2463
sbsg241
(iRuleNodes
SepNode
p2464
(dp2465
g33
Vts
p2466
sg35
(lp2467
sg37
g2231
sg46
I01
sg64
V357
p2468
sg62
V
sg75
V;
sg2187
I14
sg47
I00
sg48
(lp2469
g75
ag64
ag62
asg50
V166
p2470
sbsg2187
I6
sg268
g2170
sS'kwel'
p2471
(iRuleNodes
KeyWordNode
p2472
(dp2473
g33
Vkwel
p2474
sg35
(lp2475
sg37
g2231
sg46
I01
sg64
V299
p2476
sg62
V%0A    
p2477
sg75
VELSE
p2478
sg2187
I13
sg47
I00
sg48
(lp2479
g75
ag64
ag62
asg50
V163
p2480
sbsS'efields'
p2481
(iRuleNodes
FieldListNode
p2482
(dp2483
g33
Vefields
p2484
sg35
(lp2485
sg37
g2231
sg46
I01
sg2187
I13
sg47
I00
sg48
(lp2486
sg50
V164
p2487
sbsg37
(iRuleNodes
TypeDeclNode
p2488
(dp2489
g33
Vanon
p2490
sg35
(lp2491
(iRuleNodes
IdNode
p2492
(dp2493
g33
Vid
p2494
sg35
(lp2495
sg37
g2488
sg46
I01
sg61
g2169
sg62
V%0A  
p2496
sg64
V126
p2497
sg2187
I6
sg47
I00
sg48
(lp2498
g61
ag64
ag62
asg50
V55
p2499
sba(iRuleNodes
OpNode
p2500
(dp2501
g33
Vsign
p2502
sg35
(lp2503
sg37
g2488
sg46
I01
sg64
V134
p2504
sg62
V 
sg75
V=
sg2187
I6
sg47
I00
sg48
(lp2505
g75
ag64
ag62
asg50
V56
p2506
sbag2231
asg37
(iRuleNodes
TypeDeclsListNode
p2507
(dp2508
g33
VtypeList
p2509
sg35
(lp2510
(iRuleNodes
TypeDeclNode
p2511
(dp2512
g33
Vanon
p2513
sg35
(lp2514
(iRuleNodes
IdNode
p2515
(dp2516
g33
Vid
p2517
sg35
(lp2518
sg37
g2511
sg46
I01
sg61
g2146
sg62
V %0A  
p2519
sg64
V28
p2520
sg2187
I4
sg47
I00
sg48
(lp2521
g61
ag64
ag62
asg50
V11
p2522
sba(iRuleNodes
OpNode
p2523
(dp2524
g33
Vsign
p2525
sg35
(lp2526
sg37
g2511
sg46
I01
sg64
V31
p2527
sg62
V 
sg75
V=
sg2187
I4
sg47
I00
sg48
(lp2528
g75
ag64
ag62
asg50
V12
p2529
sba(iRuleNodes
EnumNode
p2530
(dp2531
g33
Vtipe
p2532
sg35
(lp2533
(iRuleNodes
TokNode
p2534
(dp2535
g33
Vlcr
p2536
sg35
(lp2537
sg37
g2530
sg46
I01
sg64
V33
p2538
sg62
V 
sg75
V{
sg2187
I4
sg47
I00
sg48
(lp2539
g75
ag64
ag62
asg50
V14
p2540
sba(iRuleNodes
IdListNode
p2541
(dp2542
g33
Vidlist
p2543
sg35
(lp2544
(iRuleNodes
IdNode
p2545
(dp2546
g33
Vanon
p2547
sg35
(lp2548
sg37
g2541
sg46
I01
sg61
g2150
sg62
V
sg64
V34
p2549
sg2187
I4
sg47
I00
sg48
(lp2550
g61
ag64
ag62
asg50
V16
p2551
sba(iRuleNodes
SepNode
p2552
(dp2553
g33
Vanon
p2554
sg35
(lp2555
sg37
g2541
sg46
I01
sg64
V37
p2556
sg62
V
sg75
V,
sg2187
I4
sg47
I00
sg48
(lp2557
g75
ag64
ag62
asg50
V17
p2558
sba(iRuleNodes
IdNode
p2559
(dp2560
g33
Vanon
p2561
sg35
(lp2562
sg37
g2541
sg46
I01
sg61
g2151
sg62
V 
sg64
V39
p2563
sg2187
I4
sg47
I00
sg48
(lp2564
g61
ag64
ag62
asg50
V18
p2565
sba(iRuleNodes
SepNode
p2566
(dp2567
g33
Vanon
p2568
sg35
(lp2569
sg37
g2541
sg46
I01
sg64
V44
p2570
sg62
V
sg75
V,
sg2187
I4
sg47
I00
sg48
(lp2571
g75
ag64
ag62
asg50
V19
p2572
sba(iRuleNodes
IdNode
p2573
(dp2574
g33
Vanon
p2575
sg35
(lp2576
sg37
g2541
sg46
I01
sg61
g2152
sg62
V 
sg64
V46
p2577
sg2187
I4
sg47
I00
sg48
(lp2578
g61
ag64
ag62
asg50
V20
p2579
sbasg37
g2530
sg46
I01
sg2187
I4
sg47
I00
sg48
(lp2580
sg50
V15
p2581
sba(iRuleNodes
TokNode
p2582
(dp2583
g33
Vrcr
p2584
sg35
(lp2585
sg37
g2530
sg46
I01
sg64
V56
p2586
sg62
V
sg75
V}
sg2187
I4
sg47
I00
sg48
(lp2587
g75
ag64
ag62
asg50
V21
p2588
sbasg1951
g2534
sg99
g2541
sg37
g2511
sg7
I28
sg46
I01
sg1952
g2582
sg262
I01
sg2187
I4
sg264
I01
sg47
I00
sg265
g266
sg48
(lp2589
sg268
g2147
sg50
V13
p2590
sbasg37
g2507
sg46
I01
sg256
g2530
sg257
g2515
sg2187
I4
sg47
I00
sg48
(lp2591
sg259
g2523
sg50
V10
p2592
sba(iRuleNodes
SepNode
p2593
(dp2594
g33
Vanon
p2595
sg35
(lp2596
sg37
g2507
sg46
I01
sg64
V57
p2597
sg62
V
sg75
V;
sg2187
I4
sg47
I00
sg48
(lp2598
g75
ag64
ag62
asg50
V22
p2599
sba(iRuleNodes
TypeDeclNode
p2600
(dp2601
g33
Vanon
p2602
sg35
(lp2603
(iRuleNodes
IdNode
p2604
(dp2605
g33
Vid
p2606
sg35
(lp2607
sg37
g2600
sg46
I01
sg61
g2157
sg62
V%0A  
p2608
sg64
V61
p2609
sg2187
I5
sg47
I00
sg48
(lp2610
g61
ag64
ag62
asg50
V24
p2611
sba(iRuleNodes
OpNode
p2612
(dp2613
g33
Vsign
p2614
sg35
(lp2615
sg37
g2600
sg46
I01
sg64
V74
p2616
sg62
V 
sg75
V=
sg2187
I5
sg47
I00
sg48
(lp2617
g75
ag64
ag62
asg50
V25
p2618
sba(iRuleNodes
ScaledTypeNode
p2619
(dp2620
g33
Vtipe
p2621
sg295
g2161
sg35
(lp2622
(iRuleNodes
KeyWordNode
p2623
(dp2624
g33
Vkws
p2625
sg35
(lp2626
sg37
g2619
sg46
I01
sg64
V76
p2627
sg62
V 
sg75
VSCALED
p2628
sg2187
I5
sg47
I00
sg48
(lp2629
g75
ag64
ag62
asg50
V27
p2630
sba(iRuleNodes
TypeNameNode
p2631
(dp2632
g33
Vtn
p2633
sg81
(iRuleNodes
QualIdNode
p2634
(dp2635
g33
VqualId
p2636
sg35
(lp2637
(iRuleNodes
IdNode
p2638
(dp2639
g33
Vanon
p2640
sg35
(lp2641
sg37
g2634
sg46
I01
sg61
VINTEGER
p2642
sg62
V 
sg64
V83
p2643
sg2187
I5
sg47
I00
sg48
(lp2644
g61
ag64
ag62
asg50
V30
p2645
sbasg37
g2631
sg46
I01
sg2187
I5
sS'embeddedImplicitDerefs'
p2646
(lp2647
sg47
I00
sg48
(lp2648
sg50
V29
p2649
sbsg35
(lp2650
g2634
asg37
g2619
sg46
I01
sg2187
I5
sg47
I00
sg48
(lp2651
sg50
V28
p2652
sba(iRuleNodes
TokNode
p2653
(dp2654
g33
Vlsq
p2655
sg35
(lp2656
sg37
g2619
sg46
I01
sg64
V92
p2657
sg62
V  
p2658
sg75
V{
sg2187
I5
sg47
I00
sg48
(lp2659
g75
ag64
ag62
asg50
V31
p2660
sba(iRuleNodes
IdNode
p2661
(dp2662
g33
Vunit
p2663
sg35
(lp2664
sg37
g2619
sg46
I01
sg61
Vg
sg62
V
sg64
V93
p2665
sg2187
I5
sg47
I00
sg48
(lp2666
g61
ag64
ag62
asg50
V32
p2667
sba(iRuleNodes
ScaleListNode
p2668
(dp2669
g33
VscaleList
p2670
sg35
(lp2671
(iRuleNodes
ScaleEltNode
p2672
(dp2673
g33
Vanon
p2674
sg35
(lp2675
(iRuleNodes
OpNode
p2676
(dp2677
g33
Vtc1
p2678
sg35
(lp2679
sg37
g2672
sg46
I01
sg64
V95
p2680
sg62
V 
sg75
V*
sg2187
I5
sg47
I00
sg48
(lp2681
g75
ag64
ag62
asg50
V35
p2682
sba(iRuleNodes
NumberNode
p2683
(dp2684
g33
Vn
sg2311
I1
sg35
(lp2685
(iRuleNodes
IntNode
p2686
(dp2687
g33
VintVal
p2688
sg35
(lp2689
sg37
g2683
sg47
I00
sg46
I01
sg62
V 
sg64
V97
p2690
sg2187
I5
sg2318
V1000
p2691
sg48
(lp2692
g2318
ag64
ag62
asg50
V37
p2693
sba(iRuleNodes
NullNode
p2694
(dp2695
g33
Vtd
p2696
sg35
(lp2697
sg37
g2683
sg46
I01
sg2187
I5
sg47
I00
sg48
(lp2698
sg50
V38
p2699
sba(iRuleNodes
NullNode
p2700
(dp2701
g33
VnumberRest
p2702
sg35
(lp2703
sg37
g2683
sg46
I01
sg2187
I5
sg47
I00
sg48
(lp2704
sg50
V39
p2705
sba(iRuleNodes
NullNode
p2706
(dp2707
g33
Vscaling
p2708
sg35
(lp2709
sg37
g2683
sg46
I01
sg2187
I5
sg47
I00
sg48
(lp2710
sg50
V40
p2711
sbasg37
g2672
sg2340
g2686
sg46
I01
sg2341
g2700
sg295
g2706
sg2187
I5
sg47
I00
sg48
(lp2712
sg244
g2694
sg50
V36
p2713
sg2344
Nsba(iRuleNodes
OpNode
p2714
(dp2715
g33
Vtc2
p2716
sg35
(lp2717
sg37
g2672
sg46
I01
sg64
V102
p2718
sg62
V 
sg75
V=
sg2187
I5
sg47
I00
sg48
(lp2719
g75
ag64
ag62
asg50
V41
p2720
sba(iRuleNodes
IdNode
p2721
(dp2722
g33
Vi
sg35
(lp2723
sg37
g2672
sg46
I01
sg61
g2164
sg62
V 
sg64
V104
p2724
sg2187
I5
sg47
I00
sg48
(lp2725
g61
ag64
ag62
asg50
V42
p2726
sbasg37
g2668
sS'i'
g2721
sg46
I01
sS'tc2'
p2727
g2714
sS'tc1'
p2728
g2676
sg2187
I5
sg47
I00
sg48
(lp2729
sS'n'
g2683
sg50
V34
p2730
sba(iRuleNodes
ScaleEltNode
p2731
(dp2732
g33
Vanon
p2733
sg35
(lp2734
(iRuleNodes
OpNode
p2735
(dp2736
g33
Vtc1
p2737
sg35
(lp2738
sg37
g2731
sg46
I01
sg64
V107
p2739
sg62
V 
sg75
V*
sg2187
I5
sg47
I00
sg48
(lp2740
g75
ag64
ag62
asg50
V44
p2741
sba(iRuleNodes
NumberNode
p2742
(dp2743
g33
Vn
sg2311
I1
sg35
(lp2744
(iRuleNodes
IntNode
p2745
(dp2746
g33
VintVal
p2747
sg35
(lp2748
sg37
g2742
sg47
I00
sg46
I01
sg62
V 
sg64
V109
p2749
sg2187
I5
sg2318
V1000
p2750
sg48
(lp2751
g2318
ag64
ag62
asg50
V46
p2752
sba(iRuleNodes
NullNode
p2753
(dp2754
g33
Vtd
p2755
sg35
(lp2756
sg37
g2742
sg46
I01
sg2187
I5
sg47
I00
sg48
(lp2757
sg50
V47
p2758
sba(iRuleNodes
NullNode
p2759
(dp2760
g33
VnumberRest
p2761
sg35
(lp2762
sg37
g2742
sg46
I01
sg2187
I5
sg47
I00
sg48
(lp2763
sg50
V48
p2764
sba(iRuleNodes
NullNode
p2765
(dp2766
g33
Vscaling
p2767
sg35
(lp2768
sg37
g2742
sg46
I01
sg2187
I5
sg47
I00
sg48
(lp2769
sg50
V49
p2770
sbasg37
g2731
sg2340
g2745
sg46
I01
sg2341
g2759
sg295
g2765
sg2187
I5
sg47
I00
sg48
(lp2771
sg244
g2753
sg50
V45
p2772
sg2344
Nsba(iRuleNodes
OpNode
p2773
(dp2774
g33
Vtc2
p2775
sg35
(lp2776
sg37
g2731
sg46
I01
sg64
V114
p2777
sg62
V 
sg75
V=
sg2187
I5
sg47
I00
sg48
(lp2778
g75
ag64
ag62
asg50
V50
p2779
sba(iRuleNodes
IdNode
p2780
(dp2781
g33
Vi
sg35
(lp2782
sg37
g2731
sg46
I01
sg61
g2162
sg62
V 
sg64
V116
p2783
sg2187
I5
sg47
I00
sg48
(lp2784
g61
ag64
ag62
asg50
V51
p2785
sbasg37
g2668
sS'i'
g2780
sg46
I01
sg2727
g2773
sg2728
g2735
sg2187
I5
sg47
I00
sg48
(lp2786
sS'n'
g2742
sg50
V43
p2787
sbasg37
g2619
sg46
I01
sg2187
I5
sg47
I00
sg48
(lp2788
sg50
V33
p2789
sba(iRuleNodes
TokNode
p2790
(dp2791
g33
Vrsq
p2792
sg35
(lp2793
sg37
g2619
sg46
I01
sg64
V121
p2794
sg62
V
sg75
V}
sg2187
I5
sg47
I00
sg48
(lp2795
g75
ag64
ag62
asg50
V52
p2796
sbasg37
g2600
sg47
I00
sg262
I01
sg46
I01
sg7
I29
sg2411
g2790
sS'tn'
p2797
g2631
sS'kws'
p2798
g2623
sS'scaleList'
p2799
g2668
sg2187
I5
sg264
I01
sg2415
g2653
sg265
g266
sg48
(lp2800
sg268
g2158
sg50
V26
p2801
sS'unit'
p2802
g2661
sbasg37
g2507
sg46
I01
sg256
g2619
sg257
g2604
sg2187
I5
sg47
I00
sg48
(lp2803
sg259
g2612
sg50
V23
p2804
sba(iRuleNodes
SepNode
p2805
(dp2806
g33
Vanon
p2807
sg35
(lp2808
sg37
g2507
sg46
I01
sg64
V122
p2809
sg62
V
sg75
V;
sg2187
I5
sg47
I00
sg48
(lp2810
g75
ag64
ag62
asg50
V53
p2811
sbag2488
a(iRuleNodes
SepNode
p2812
(dp2813
g33
Vanon
p2814
sg35
(lp2815
sg37
g2507
sg46
I01
sg64
V392
p2816
sg62
V
sg75
V;
sg2187
I16
sg47
I00
sg48
(lp2817
g75
ag64
ag62
asg50
V194
p2818
sbasg37
(iRuleNodes
TypeDeclsNode
p2819
(dp2820
g33
Vanon
p2821
sg35
(lp2822
(iRuleNodes
KeyWordNode
p2823
(dp2824
g33
Vkwt
p2825
sg35
(lp2826
sg37
g2819
sg46
I01
sg64
V20
p2827
sg62
V%0A%0A
p2828
sg75
VTYPE
p2829
sg2187
I3
sg47
I00
sg48
(lp2830
g75
ag64
ag62
asg50
V8
sbag2507
asg37
(iRuleNodes
InterfaceDeclListNode
p2831
(dp2832
g33
Vdecls
p2833
sg35
(lp2834
g2819
a(iRuleNodes
VariableDeclsNode
p2835
(dp2836
g33
Vanon
p2837
sg35
(lp2838
(iRuleNodes
KeyWordNode
p2839
(dp2840
g33
Vkwv
p2841
sg35
(lp2842
sg37
g2835
sg46
I01
sg64
V395
p2843
sg62
V%0A%0A
p2844
sg75
VVAR
p2845
sg2187
I18
sg47
I00
sg48
(lp2846
g75
ag64
ag62
asg50
V196
p2847
sba(iRuleNodes
VariableDeclsListNode
p2848
(dp2849
g33
Vvariables
p2850
sg35
(lp2851
(iRuleNodes
VariableDeclNode
p2852
(dp2853
g33
Vanon
p2854
sg41
(iRuleNodes
TokNode
p2855
(dp2856
g33
Vass
p2857
sg35
(lp2858
sg37
g2852
sg46
I01
sg64
V409
p2859
sg62
V   
p2860
sg75
V:=
p2861
sg2187
I19
sg47
I00
sg48
(lp2862
g75
ag64
ag62
asg50
V203
p2863
sbsg35
(lp2864
(iRuleNodes
IdListNode
p2865
(dp2866
g33
Vidlist
p2867
sg35
(lp2868
(iRuleNodes
IdNode
p2869
(dp2870
g33
Vanon
p2871
sg35
(lp2872
sg37
g2865
sg46
I01
sg61
VmyCar
p2873
sg62
V%0A  
p2874
sg64
V401
p2875
sg2187
I19
sg47
I00
sg48
(lp2876
g61
ag64
ag62
asg50
V200
p2877
sbasg37
g2852
sg46
I01
sg2187
I19
sg47
I00
sg48
(lp2878
sg50
V199
p2879
sba(iRuleNodes
NullNode
p2880
(dp2881
g33
Vcol
p2882
sg35
(lp2883
sg37
g2852
sg46
I01
sg2187
I19
sg47
I00
sg48
(lp2884
sg50
V201
p2885
sba(iRuleNodes
NullNode
p2886
(dp2887
g33
Vtipe
p2888
sg35
(lp2889
sg37
g2852
sg46
I01
sg2187
I19
sg47
I00
sg48
(lp2890
sg50
V202
p2891
sbag2855
a(iRuleNodes
ExprNode
p2892
(dp2893
g33
Vexpr
p2894
sg35
(lp2895
(iRuleNodes
ConstructorNode
p2896
(dp2897
g33
Vexpr
p2898
sg35
(lp2899
(iRuleNodes
TypeNameNode
p2900
(dp2901
g33
Vtipe
p2902
sg81
(iRuleNodes
QualIdNode
p2903
(dp2904
g33
VqualId
p2905
sg35
(lp2906
(iRuleNodes
IdNode
p2907
(dp2908
g33
Vanon
p2909
sg35
(lp2910
sg37
g2903
sg46
I01
sg61
Vvehicle
p2911
sg62
V 
sg64
V412
p2912
sg2187
I19
sg47
I00
sg48
(lp2913
g61
ag64
ag62
asg50
V208
p2914
sbasg37
g2900
sg46
I01
sg2187
I19
sg2646
(lp2915
sg47
I00
sg48
(lp2916
sg50
V207
p2917
sbsg35
(lp2918
g2903
asg37
g2896
sg46
I01
sg2187
I19
sg47
I00
sg48
(lp2919
sg50
V206
p2920
sba(iRuleNodes
TokNode
p2921
(dp2922
g33
Vlcr
p2923
sg35
(lp2924
sg37
g2896
sg46
I01
sg64
V419
p2925
sg62
V
sg75
V{
sg2187
I19
sg47
I00
sg48
(lp2926
g75
ag64
ag62
asg50
V209
p2927
sba(iRuleNodes
ConsEltListNode
p2928
(dp2929
g33
VconsEltList
p2930
sg35
(lp2931
(iRuleNodes
ConsEltExprNode
p2932
(dp2933
g33
Vanon
p2934
sg35
(lp2935
(iRuleNodes
ExprNode
p2936
(dp2937
g33
Vexpr
p2938
sg35
(lp2939
(iRuleNodes
TypeNameNode
p2940
(dp2941
g33
Vexpr
p2942
sg81
(iRuleNodes
QualIdNode
p2943
(dp2944
g33
VqualId
p2945
sg35
(lp2946
(iRuleNodes
IdNode
p2947
(dp2948
g33
Vanon
p2949
sg35
(lp2950
sg37
g2943
sg46
I01
sg61
Vvk
p2951
sg62
V
sg64
V420
p2952
sg2187
I19
sg47
I00
sg48
(lp2953
g61
ag64
ag62
asg50
V215
p2954
sba(iRuleNodes
SepNode
p2955
(dp2956
g33
Vanon
p2957
sg35
(lp2958
sg37
g2943
sg46
I01
sg64
V422
p2959
sg62
V
sg75
V.
sg2187
I19
sg47
I00
sg48
(lp2960
g75
ag64
ag62
asg50
V216
p2961
sba(iRuleNodes
IdNode
p2962
(dp2963
g33
Vanon
p2964
sg35
(lp2965
sg37
g2943
sg46
I01
sg61
Vcar
p2966
sg62
V
sg64
V423
p2967
sg2187
I19
sg47
I00
sg48
(lp2968
g61
ag64
ag62
asg50
V217
p2969
sbasg37
g2940
sg46
I01
sg2187
I19
sg2646
(lp2970
sg47
I00
sg48
(lp2971
sg50
V214
p2972
sbsg35
(lp2973
g2943
asg37
g2936
sg46
I01
sg2187
I19
sg47
I00
sg48
(lp2974
sg50
V213
p2975
sbasg2345
g2147
sg37
g2932
sg2346
g2940
sg46
I01
sg2347
g2147
sg2187
I19
sg47
I00
sg48
(lp2976
sg50
V212
p2977
sbasg37
g2928
sg2346
g2936
sg46
I01
sg2187
I19
sg47
I00
sg48
(lp2978
sg50
V211
p2979
sba(iRuleNodes
SepNode
p2980
(dp2981
g33
Vanon
p2982
sg35
(lp2983
sg37
g2928
sg46
I01
sg64
V426
p2984
sg62
V
sg75
V,
sg2187
I19
sg47
I00
sg48
(lp2985
g75
ag64
ag62
asg50
V218
p2986
sba(iRuleNodes
ConsEltAssNode
p2987
(dp2988
g33
Vanon
p2989
sg41
(iRuleNodes
TokNode
p2990
(dp2991
g33
Vass
p2992
sg35
(lp2993
sg37
g2987
sg46
I01
sg64
V434
p2994
sg62
V 
sg75
V:=
p2995
sg2187
I19
sg47
I00
sg48
(lp2996
g75
ag64
ag62
asg50
V221
p2997
sbsg35
(lp2998
(iRuleNodes
IdNode
p2999
(dp3000
g33
Vid
p3001
sg35
(lp3002
sg37
g2987
sg46
I01
sg61
Vdoors
p3003
sg62
V 
sg64
V428
p3004
sg2187
I19
sg47
I00
sg48
(lp3005
g61
ag64
ag62
asg50
V220
p3006
sbag2990
a(iRuleNodes
ExprNode
p3007
(dp3008
g33
Vexpr
p3009
sg35
(lp3010
(iRuleNodes
NumberNode
p3011
(dp3012
g33
Vexpr
p3013
sg2311
I1
sg35
(lp3014
(iRuleNodes
IntNode
p3015
(dp3016
g33
VintVal
p3017
sg35
(lp3018
sg37
g3011
sg47
I00
sg46
I01
sg62
V 
sg64
V437
p3019
sg2187
I19
sg2318
V3
sg48
(lp3020
g2318
ag64
ag62
asg50
V224
p3021
sba(iRuleNodes
NullNode
p3022
(dp3023
g33
Vtd
p3024
sg35
(lp3025
sg37
g3011
sg46
I01
sg2187
I19
sg47
I00
sg48
(lp3026
sg50
V225
p3027
sba(iRuleNodes
NullNode
p3028
(dp3029
g33
VnumberRest
p3030
sg35
(lp3031
sg37
g3011
sg46
I01
sg2187
I19
sg47
I00
sg48
(lp3032
sg50
V226
p3033
sba(iRuleNodes
NullNode
p3034
(dp3035
g33
Vscaling
p3036
sg35
(lp3037
sg37
g3011
sg46
I01
sg2187
I19
sg47
I00
sg48
(lp3038
sg50
V227
p3039
sbasg37
g3007
sg2340
g3015
sg46
I01
sg2341
g3028
sg295
g3034
sg2187
I19
sg47
I00
sg48
(lp3040
sg244
g3022
sg50
V223
p3041
sg2344
Nsbasg2345
g278
sg37
g2987
sg2346
g3011
sg46
I01
sg2347
g278
sg2187
I19
sg47
I00
sg48
(lp3042
sg50
V222
p3043
sbasg37
g2928
sg2346
g3007
sg46
I01
sg257
g2999
sg2187
I19
sg47
I00
sg48
(lp3044
sg50
V219
p3045
sba(iRuleNodes
SepNode
p3046
(dp3047
g33
Vanon
p3048
sg35
(lp3049
sg37
g2928
sg46
I01
sg64
V438
p3050
sg62
V
sg75
V,
sg2187
I19
sg47
I00
sg48
(lp3051
g75
ag64
ag62
asg50
V228
p3052
sba(iRuleNodes
ConsEltAssNode
p3053
(dp3054
g33
Vanon
p3055
sg41
(iRuleNodes
TokNode
p3056
(dp3057
g33
Vass
p3058
sg35
(lp3059
sg37
g3053
sg46
I01
sg64
V449
p3060
sg62
V 
sg75
V:=
p3061
sg2187
I19
sg47
I00
sg48
(lp3062
g75
ag64
ag62
asg50
V231
p3063
sbsg35
(lp3064
(iRuleNodes
IdNode
p3065
(dp3066
g33
Vid
p3067
sg35
(lp3068
sg37
g3053
sg46
I01
sg61
VtopSpeed
p3069
sg62
V 
sg64
V440
p3070
sg2187
I19
sg47
I00
sg48
(lp3071
g61
ag64
ag62
asg50
V230
p3072
sbag3056
a(iRuleNodes
ExprNode
p3073
(dp3074
g33
Vexpr
p3075
sg35
(lp3076
(iRuleNodes
NumberNode
p3077
(dp3078
g33
Vexpr
p3079
sg2311
I1
sg35
(lp3080
(iRuleNodes
IntNode
p3081
(dp3082
g33
VintVal
p3083
sg35
(lp3084
sg37
g3077
sg47
I00
sg46
I01
sg62
V 
sg64
V452
p3085
sg2187
I19
sg2318
V210
p3086
sg48
(lp3087
g2318
ag64
ag62
asg50
V234
p3088
sba(iRuleNodes
NullNode
p3089
(dp3090
g33
Vtd
p3091
sg35
(lp3092
sg37
g3077
sg46
I01
sg2187
I19
sg47
I00
sg48
(lp3093
sg50
V235
p3094
sba(iRuleNodes
NullNode
p3095
(dp3096
g33
VnumberRest
p3097
sg35
(lp3098
sg37
g3077
sg46
I01
sg2187
I19
sg47
I00
sg48
(lp3099
sg50
V236
p3100
sba(iRuleNodes
NullNode
p3101
(dp3102
g33
Vscaling
p3103
sg35
(lp3104
sg37
g3077
sg46
I01
sg2187
I19
sg47
I00
sg48
(lp3105
sg50
V237
p3106
sbasg37
g3073
sg2340
g3081
sg46
I01
sg2341
g3095
sg295
g3101
sg2187
I19
sg47
I00
sg48
(lp3107
sg244
g3089
sg50
V233
p3108
sg2344
Nsbasg2345
g278
sg37
g3053
sg2346
g3077
sg46
I01
sg2347
g278
sg2187
I19
sg47
I00
sg48
(lp3109
sg50
V232
p3110
sbasg37
g2928
sg2346
g3073
sg46
I01
sg257
g3065
sg2187
I19
sg47
I00
sg48
(lp3111
sg50
V229
p3112
sbasg37
g2896
sg46
I01
sg2187
I19
sg47
I00
sg48
(lp3113
sg50
V210
p3114
sba(iRuleNodes
TokNode
p3115
(dp3116
g33
Vrcr
p3117
sg35
(lp3118
sg37
g2896
sg46
I01
sg64
V455
p3119
sg62
V
sg75
V}
sg2187
I19
sg47
I00
sg48
(lp3120
g75
ag64
ag62
asg50
V238
p3121
sbasg1951
g2921
sg37
g2892
sg46
I01
sg256
g2900
sg1952
g3115
sS'consEltList'
p3122
g2928
sg2187
I19
sg47
I00
sg48
(lp3123
sg50
V205
p3124
sbasg2345
g2170
sg37
g2852
sg2346
g2896
sg46
I01
sg2347
g2170
sg2187
I19
sg47
I00
sg48
(lp3125
sg50
V204
p3126
sbasg99
g2865
sg37
g2848
sg2346
g2892
sg46
I01
sg256
g2886
sg272
g2880
sS'vartype'
p3127
g2170
sg2187
I19
sg47
I00
sg48
(lp3128
sg50
V198
p3129
sba(iRuleNodes
SepNode
p3130
(dp3131
g33
Vanon
p3132
sg35
(lp3133
sg37
g2848
sg46
I01
sg64
V456
p3134
sg62
V
sg75
V;
sg2187
I19
sg47
I00
sg48
(lp3135
g75
ag64
ag62
asg50
V239
p3136
sba(iRuleNodes
VariableDeclNode
p3137
(dp3138
g33
Vanon
p3139
sg41
(iRuleNodes
TokNode
p3140
(dp3141
g33
Vass
p3142
sg35
(lp3143
sg37
g3137
sg46
I01
sg64
V468
p3144
sg62
V 
sg75
V:=
p3145
sg2187
I20
sg47
I00
sg48
(lp3146
g75
ag64
ag62
asg50
V245
p3147
sbsg35
(lp3148
(iRuleNodes
IdListNode
p3149
(dp3150
g33
Vidlist
p3151
sg35
(lp3152
(iRuleNodes
IdNode
p3153
(dp3154
g33
Vanon
p3155
sg35
(lp3156
sg37
g3149
sg46
I01
sg61
VmyTruck
p3157
sg62
V%0A  
p3158
sg64
V460
p3159
sg2187
I20
sg47
I00
sg48
(lp3160
g61
ag64
ag62
asg50
V242
p3161
sbasg37
g3137
sg46
I01
sg2187
I20
sg47
I00
sg48
(lp3162
sg50
V241
p3163
sba(iRuleNodes
NullNode
p3164
(dp3165
g33
Vcol
p3166
sg35
(lp3167
sg37
g3137
sg46
I01
sg2187
I20
sg47
I00
sg48
(lp3168
sg50
V243
p3169
sba(iRuleNodes
NullNode
p3170
(dp3171
g33
Vtipe
p3172
sg35
(lp3173
sg37
g3137
sg46
I01
sg2187
I20
sg47
I00
sg48
(lp3174
sg50
V244
p3175
sbag3140
a(iRuleNodes
ExprNode
p3176
(dp3177
g33
Vexpr
p3178
sg35
(lp3179
(iRuleNodes
ConstructorNode
p3180
(dp3181
g33
Vexpr
p3182
sg35
(lp3183
(iRuleNodes
TypeNameNode
p3184
(dp3185
g33
Vtipe
p3186
sg81
(iRuleNodes
QualIdNode
p3187
(dp3188
g33
VqualId
p3189
sg35
(lp3190
(iRuleNodes
IdNode
p3191
(dp3192
g33
Vanon
p3193
sg35
(lp3194
sg37
g3187
sg46
I01
sg61
Vvehicle
p3195
sg62
V 
sg64
V471
p3196
sg2187
I20
sg47
I00
sg48
(lp3197
g61
ag64
ag62
asg50
V250
p3198
sbasg37
g3184
sg46
I01
sg2187
I20
sg2646
(lp3199
sg47
I00
sg48
(lp3200
sg50
V249
p3201
sbsg35
(lp3202
g3187
asg37
g3180
sg46
I01
sg2187
I20
sg47
I00
sg48
(lp3203
sg50
V248
p3204
sba(iRuleNodes
TokNode
p3205
(dp3206
g33
Vlcr
p3207
sg35
(lp3208
sg37
g3180
sg46
I01
sg64
V478
p3209
sg62
V
sg75
V{
sg2187
I20
sg47
I00
sg48
(lp3210
g75
ag64
ag62
asg50
V251
p3211
sba(iRuleNodes
ConsEltListNode
p3212
(dp3213
g33
VconsEltList
p3214
sg35
(lp3215
(iRuleNodes
ConsEltExprNode
p3216
(dp3217
g33
Vanon
p3218
sg35
(lp3219
(iRuleNodes
ExprNode
p3220
(dp3221
g33
Vexpr
p3222
sg35
(lp3223
(iRuleNodes
TypeNameNode
p3224
(dp3225
g33
Vexpr
p3226
sg81
(iRuleNodes
QualIdNode
p3227
(dp3228
g33
VqualId
p3229
sg35
(lp3230
(iRuleNodes
IdNode
p3231
(dp3232
g33
Vanon
p3233
sg35
(lp3234
sg37
g3227
sg46
I01
sg61
Vvk
p3235
sg62
V
sg64
V479
p3236
sg2187
I20
sg47
I00
sg48
(lp3237
g61
ag64
ag62
asg50
V257
p3238
sba(iRuleNodes
SepNode
p3239
(dp3240
g33
Vanon
p3241
sg35
(lp3242
sg37
g3227
sg46
I01
sg64
V481
p3243
sg62
V
sg75
V.
sg2187
I20
sg47
I00
sg48
(lp3244
g75
ag64
ag62
asg50
V258
p3245
sba(iRuleNodes
IdNode
p3246
(dp3247
g33
Vanon
p3248
sg35
(lp3249
sg37
g3227
sg46
I01
sg61
Vtruck
p3250
sg62
V
sg64
V482
p3251
sg2187
I20
sg47
I00
sg48
(lp3252
g61
ag64
ag62
asg50
V259
p3253
sbasg37
g3224
sg46
I01
sg2187
I20
sg2646
(lp3254
sg47
I00
sg48
(lp3255
sg50
V256
p3256
sbsg35
(lp3257
g3227
asg37
g3220
sg46
I01
sg2187
I20
sg47
I00
sg48
(lp3258
sg50
V255
p3259
sbasg2345
g2147
sg37
g3216
sg2346
g3224
sg46
I01
sg2347
g2147
sg2187
I20
sg47
I00
sg48
(lp3260
sg50
V254
p3261
sbasg37
g3212
sg2346
g3220
sg46
I01
sg2187
I20
sg47
I00
sg48
(lp3262
sg50
V253
p3263
sba(iRuleNodes
SepNode
p3264
(dp3265
g33
Vanon
p3266
sg35
(lp3267
sg37
g3212
sg46
I01
sg64
V487
p3268
sg62
V
sg75
V,
sg2187
I20
sg47
I00
sg48
(lp3269
g75
ag64
ag62
asg50
V260
p3270
sba(iRuleNodes
ConsEltAssNode
p3271
(dp3272
g33
Vanon
p3273
sg41
(iRuleNodes
TokNode
p3274
(dp3275
g33
Vass
p3276
sg35
(lp3277
sg37
g3271
sg46
I01
sg64
V496
p3278
sg62
V 
sg75
V:=
p3279
sg2187
I20
sg47
I00
sg48
(lp3280
g75
ag64
ag62
asg50
V263
p3281
sbsg35
(lp3282
(iRuleNodes
IdNode
p3283
(dp3284
g33
Vid
p3285
sg35
(lp3286
sg37
g3271
sg46
I01
sg61
Vweight
p3287
sg62
V 
sg64
V489
p3288
sg2187
I20
sg47
I00
sg48
(lp3289
g61
ag64
ag62
asg50
V262
p3290
sbag3274
a(iRuleNodes
ExprNode
p3291
(dp3292
g33
Vexpr
p3293
sg35
(lp3294
(iRuleNodes
NumberNode
p3295
(dp3296
g33
Vexpr
p3297
sg2311
I1000000
sg35
(lp3298
(iRuleNodes
IntNode
p3299
(dp3300
g33
VintVal
p3301
sg35
(lp3302
sg37
g3295
sg47
I00
sg46
I01
sg62
V 
sg64
V499
p3303
sg2187
I20
sg2318
V5
sg48
(lp3304
g2318
ag64
ag62
asg50
V266
p3305
sba(iRuleNodes
NullNode
p3306
(dp3307
g33
Vtd
p3308
sg35
(lp3309
sg37
g3295
sg46
I01
sg2187
I20
sg47
I00
sg48
(lp3310
sg50
V267
p3311
sba(iRuleNodes
NullNode
p3312
(dp3313
g33
VnumberRest
p3314
sg35
(lp3315
sg37
g3295
sg46
I01
sg2187
I20
sg47
I00
sg48
(lp3316
sg50
V268
p3317
sba(iRuleNodes
IdNode
p3318
(dp3319
g33
Vscaling
p3320
sg35
(lp3321
sg37
g3295
sg46
I01
sg61
Vtonne
p3322
sg62
V 
sg64
V501
p3323
sg2187
I20
sg47
I00
sg48
(lp3324
g61
ag64
ag62
asg50
V269
p3325
sbasg37
g3291
sg2340
g3299
sg46
I01
sg2341
g3312
sg295
g3318
sg2187
I20
sg47
I00
sg48
(lp3326
sg244
g3306
sg50
V265
p3327
sg2344
g2158
sbasg2345
g2158
sg37
g3271
sg2346
g3295
sg46
I01
sg2347
g2158
sg2187
I20
sg47
I00
sg48
(lp3328
sg50
V264
p3329
sbasg37
g3212
sg2346
g3291
sg46
I01
sg257
g3283
sg2187
I20
sg47
I00
sg48
(lp3330
sg50
V261
p3331
sbasg37
g3180
sg46
I01
sg2187
I20
sg47
I00
sg48
(lp3332
sg50
V252
p3333
sba(iRuleNodes
TokNode
p3334
(dp3335
g33
Vrcr
p3336
sg35
(lp3337
sg37
g3180
sg46
I01
sg64
V506
p3338
sg62
V
sg75
V}
sg2187
I20
sg47
I00
sg48
(lp3339
g75
ag64
ag62
asg50
V270
p3340
sbasg1951
g3205
sg37
g3176
sg46
I01
sg256
g3184
sg1952
g3334
sg3122
g3212
sg2187
I20
sg47
I00
sg48
(lp3341
sg50
V247
p3342
sbasg2345
g2170
sg37
g3137
sg2346
g3180
sg46
I01
sg2347
g2170
sg2187
I20
sg47
I00
sg48
(lp3343
sg50
V246
p3344
sbasg99
g3149
sg37
g2848
sg2346
g3176
sg46
I01
sg256
g3170
sg272
g3164
sg3127
g2170
sg2187
I20
sg47
I00
sg48
(lp3345
sg50
V240
p3346
sba(iRuleNodes
SepNode
p3347
(dp3348
g33
Vanon
p3349
sg35
(lp3350
sg37
g2848
sg46
I01
sg64
V507
p3351
sg62
V
sg75
V;
sg2187
I20
sg47
I00
sg48
(lp3352
g75
ag64
ag62
asg50
V271
p3353
sba(iRuleNodes
VariableDeclNode
p3354
(dp3355
g33
Vanon
p3356
sg41
(iRuleNodes
TokNode
p3357
(dp3358
g33
Vass
p3359
sg35
(lp3360
sg37
g3354
sg46
I01
sg64
V520
p3361
sg62
V  
p3362
sg75
V:=
p3363
sg2187
I21
sg47
I00
sg48
(lp3364
g75
ag64
ag62
asg50
V277
p3365
sbsg35
(lp3366
(iRuleNodes
IdListNode
p3367
(dp3368
g33
Vidlist
p3369
sg35
(lp3370
(iRuleNodes
IdNode
p3371
(dp3372
g33
Vanon
p3373
sg35
(lp3374
sg37
g3367
sg46
I01
sg61
VmyBike
p3375
sg62
V %0A  
p3376
sg64
V512
p3377
sg2187
I21
sg47
I00
sg48
(lp3378
g61
ag64
ag62
asg50
V274
p3379
sbasg37
g3354
sg46
I01
sg2187
I21
sg47
I00
sg48
(lp3380
sg50
V273
p3381
sba(iRuleNodes
NullNode
p3382
(dp3383
g33
Vcol
p3384
sg35
(lp3385
sg37
g3354
sg46
I01
sg2187
I21
sg47
I00
sg48
(lp3386
sg50
V275
p3387
sba(iRuleNodes
NullNode
p3388
(dp3389
g33
Vtipe
p3390
sg35
(lp3391
sg37
g3354
sg46
I01
sg2187
I21
sg47
I00
sg48
(lp3392
sg50
V276
p3393
sbag3357
a(iRuleNodes
ExprNode
p3394
(dp3395
g33
Vexpr
p3396
sg35
(lp3397
(iRuleNodes
ConstructorNode
p3398
(dp3399
g33
Vexpr
p3400
sg35
(lp3401
(iRuleNodes
TypeNameNode
p3402
(dp3403
g33
Vtipe
p3404
sg81
(iRuleNodes
QualIdNode
p3405
(dp3406
g33
VqualId
p3407
sg35
(lp3408
(iRuleNodes
IdNode
p3409
(dp3410
g33
Vanon
p3411
sg35
(lp3412
sg37
g3405
sg46
I01
sg61
Vvehicle
p3413
sg62
V 
sg64
V523
p3414
sg2187
I21
sg47
I00
sg48
(lp3415
g61
ag64
ag62
asg50
V282
p3416
sbasg37
g3402
sg46
I01
sg2187
I21
sg2646
(lp3417
sg47
I00
sg48
(lp3418
sg50
V281
p3419
sbsg35
(lp3420
g3405
asg37
g3398
sg46
I01
sg2187
I21
sg47
I00
sg48
(lp3421
sg50
V280
p3422
sba(iRuleNodes
TokNode
p3423
(dp3424
g33
Vlcr
p3425
sg35
(lp3426
sg37
g3398
sg46
I01
sg64
V530
p3427
sg62
V
sg75
V{
sg2187
I21
sg47
I00
sg48
(lp3428
g75
ag64
ag62
asg50
V283
p3429
sba(iRuleNodes
ConsEltListNode
p3430
(dp3431
g33
VconsEltList
p3432
sg35
(lp3433
(iRuleNodes
ConsEltExprNode
p3434
(dp3435
g33
Vanon
p3436
sg35
(lp3437
(iRuleNodes
ExprNode
p3438
(dp3439
g33
Vexpr
p3440
sg35
(lp3441
(iRuleNodes
TypeNameNode
p3442
(dp3443
g33
Vexpr
p3444
sg81
(iRuleNodes
QualIdNode
p3445
(dp3446
g33
VqualId
p3447
sg35
(lp3448
(iRuleNodes
IdNode
p3449
(dp3450
g33
Vanon
p3451
sg35
(lp3452
sg37
g3445
sg46
I01
sg61
Vvk
p3453
sg62
V
sg64
V531
p3454
sg2187
I21
sg47
I00
sg48
(lp3455
g61
ag64
ag62
asg50
V289
p3456
sba(iRuleNodes
SepNode
p3457
(dp3458
g33
Vanon
p3459
sg35
(lp3460
sg37
g3445
sg46
I01
sg64
V533
p3461
sg62
V
sg75
V.
sg2187
I21
sg47
I00
sg48
(lp3462
g75
ag64
ag62
asg50
V290
p3463
sba(iRuleNodes
IdNode
p3464
(dp3465
g33
Vanon
p3466
sg35
(lp3467
sg37
g3445
sg46
I01
sg61
Vmotorcycle
p3468
sg62
V
sg64
V534
p3469
sg2187
I21
sg47
I00
sg48
(lp3470
g61
ag64
ag62
asg50
V291
p3471
sbasg37
g3442
sg46
I01
sg2187
I21
sg2646
(lp3472
sg47
I00
sg48
(lp3473
sg50
V288
p3474
sbsg35
(lp3475
g3445
asg37
g3438
sg46
I01
sg2187
I21
sg47
I00
sg48
(lp3476
sg50
V287
p3477
sbasg2345
g2147
sg37
g3434
sg2346
g3442
sg46
I01
sg2347
g2147
sg2187
I21
sg47
I00
sg48
(lp3478
sg50
V286
p3479
sbasg37
g3430
sg2346
g3438
sg46
I01
sg2187
I21
sg47
I00
sg48
(lp3480
sg50
V285
p3481
sba(iRuleNodes
SepNode
p3482
(dp3483
g33
Vanon
p3484
sg35
(lp3485
sg37
g3430
sg46
I01
sg64
V544
p3486
sg62
V
sg75
V,
sg2187
I21
sg47
I00
sg48
(lp3487
g75
ag64
ag62
asg50
V292
p3488
sba(iRuleNodes
ConsEltAssNode
p3489
(dp3490
g33
Vanon
p3491
sg41
(iRuleNodes
TokNode
p3492
(dp3493
g33
Vass
p3494
sg35
(lp3495
sg37
g3489
sg46
I01
sg64
V555
p3496
sg62
V 
sg75
V:=
p3497
sg2187
I21
sg47
I00
sg48
(lp3498
g75
ag64
ag62
asg50
V295
p3499
sbsg35
(lp3500
(iRuleNodes
IdNode
p3501
(dp3502
g33
Vid
p3503
sg35
(lp3504
sg37
g3489
sg46
I01
sg61
VtopSpeed
p3505
sg62
V 
sg64
V546
p3506
sg2187
I21
sg47
I00
sg48
(lp3507
g61
ag64
ag62
asg50
V294
p3508
sbag3492
a(iRuleNodes
ExprNode
p3509
(dp3510
g33
Vexpr
p3511
sg35
(lp3512
(iRuleNodes
NumberNode
p3513
(dp3514
g33
Vexpr
p3515
sg2311
I1
sg35
(lp3516
(iRuleNodes
IntNode
p3517
(dp3518
g33
VintVal
p3519
sg35
(lp3520
sg37
g3513
sg47
I00
sg46
I01
sg62
V 
sg64
V558
p3521
sg2187
I21
sg2318
V200
p3522
sg48
(lp3523
g2318
ag64
ag62
asg50
V298
p3524
sba(iRuleNodes
NullNode
p3525
(dp3526
g33
Vtd
p3527
sg35
(lp3528
sg37
g3513
sg46
I01
sg2187
I21
sg47
I00
sg48
(lp3529
sg50
V299
p3530
sba(iRuleNodes
NullNode
p3531
(dp3532
g33
VnumberRest
p3533
sg35
(lp3534
sg37
g3513
sg46
I01
sg2187
I21
sg47
I00
sg48
(lp3535
sg50
V300
p3536
sba(iRuleNodes
NullNode
p3537
(dp3538
g33
Vscaling
p3539
sg35
(lp3540
sg37
g3513
sg46
I01
sg2187
I21
sg47
I00
sg48
(lp3541
sg50
V301
p3542
sbasg37
g3509
sg2340
g3517
sg46
I01
sg2341
g3531
sg295
g3537
sg2187
I21
sg47
I00
sg48
(lp3543
sg244
g3525
sg50
V297
p3544
sg2344
Nsbasg2345
g278
sg37
g3489
sg2346
g3513
sg46
I01
sg2347
g278
sg2187
I21
sg47
I00
sg48
(lp3545
sg50
V296
p3546
sbasg37
g3430
sg2346
g3509
sg46
I01
sg257
g3501
sg2187
I21
sg47
I00
sg48
(lp3547
sg50
V293
p3548
sbasg37
g3398
sg46
I01
sg2187
I21
sg47
I00
sg48
(lp3549
sg50
V284
p3550
sba(iRuleNodes
TokNode
p3551
(dp3552
g33
Vrcr
p3553
sg35
(lp3554
sg37
g3398
sg46
I01
sg64
V561
p3555
sg62
V
sg75
V}
sg2187
I21
sg47
I00
sg48
(lp3556
g75
ag64
ag62
asg50
V302
p3557
sbasg1951
g3423
sg37
g3394
sg46
I01
sg256
g3402
sg1952
g3551
sg3122
g3430
sg2187
I21
sg47
I00
sg48
(lp3558
sg50
V279
p3559
sbasg2345
g2170
sg37
g3354
sg2346
g3398
sg46
I01
sg2347
g2170
sg2187
I21
sg47
I00
sg48
(lp3560
sg50
V278
p3561
sbasg99
g3367
sg37
g2848
sg2346
g3394
sg46
I01
sg256
g3388
sg272
g3382
sg3127
g2170
sg2187
I21
sg47
I00
sg48
(lp3562
sg50
V272
p3563
sba(iRuleNodes
SepNode
p3564
(dp3565
g33
Vanon
p3566
sg35
(lp3567
sg37
g2848
sg46
I01
sg64
V562
p3568
sg62
V
sg75
V;
sg2187
I21
sg47
I00
sg48
(lp3569
g75
ag64
ag62
asg50
V303
p3570
sbasg37
g2835
sg46
I01
sg2187
I19
sg47
I00
sg48
(lp3571
sg50
V197
p3572
sbasg37
g2831
sg47
I00
sg46
I01
sg2187
I18
sS'kwv'
p3573
g2839
sg48
(lp3574
sS'variables'
p3575
g2848
sg50
V195
p3576
sbasg179
(iLUT
LUT
p3577
(dp3578
g182
g2831
sg183
Nsg184
(dp3579
g3157
(iLUT
LUTEntry
p3580
(dp3581
g4
g3137
sg5
g3157
sg7
I-1
sg8
Nsg9
I00
sg10
I00
sg11
g320
sg13
Nsg14
g2170
sg313
I00
sg314
Nsbsg2873
(iLUT
LUTEntry
p3582
(dp3583
g4
g2852
sg5
g2873
sg7
I-1
sg8
Nsg9
I00
sg10
I00
sg11
g320
sg13
Nsg14
g2170
sg313
I00
sg314
Nsbsg2146
g2144
sg2157
g2155
sg2169
g2167
sg3375
(iLUT
LUTEntry
p3584
(dp3585
g4
g3354
sg5
g3375
sg7
I-1
sg8
Nsg9
I00
sg10
I00
sg11
g320
sg13
Nsg14
g2170
sg313
I00
sg314
Nsbssbsg37
(iRuleNodes
InterfaceNode
p3586
(dp3587
g33
Vanon
p3588
sg189
(iRuleNodes
IdNode
p3589
(dp3590
g33
Vmodname
p3591
sg35
(lp3592
sg37
g3586
sg46
I01
sg61
VTraffic
p3593
sg62
V 
sg64
V10
p3594
sg2187
I1
sg47
I00
sg48
(lp3595
g61
ag64
ag62
asg50
V3
sbsg35
(lp3596
(iRuleNodes
KeyWordNode
p3597
(dp3598
g33
Vkwi
p3599
sg35
(lp3600
sg37
g3586
sg46
I01
sg64
V0
sg62
V
sg75
VINTERFACE
p3601
sg2187
I1
sg47
I00
sg48
(lp3602
g75
ag64
ag62
asg50
V2
sbag3589
a(iRuleNodes
SepNode
p3603
(dp3604
g33
Vts
p3605
sg35
(lp3606
sg37
g3586
sg46
I01
sg64
V17
p3607
sg62
V
sg75
V;
sg2187
I1
sg47
I00
sg48
(lp3608
g75
ag64
ag62
asg50
V4
sba(iRuleNodes
ImportListNode
p3609
(dp3610
g33
Vimports
p3611
sg35
(lp3612
sg37
g3586
sg46
I01
sg2187
I1
sg47
I00
sg48
(lp3613
sg50
V5
sbag2831
a(iRuleNodes
KeyWordNode
p3614
(dp3615
g33
Vkwe
p3616
sg35
(lp3617
sg37
g3586
sg46
I01
sg64
V564
p3618
sg62
V%0A
p3619
sg75
VEND
p3620
sg2187
I22
sg47
I00
sg48
(lp3621
g75
ag64
ag62
asg50
V304
p3622
sba(iRuleNodes
IdNode
p3623
(dp3624
g33
VendId
p3625
sg35
(lp3626
sg37
g3586
sg46
I01
sg61
VTraffic
p3627
sg62
V 
sg64
V568
p3628
sg2187
I22
sg47
I00
sg48
(lp3629
g61
ag64
ag62
asg50
V305
p3630
sba(iRuleNodes
SepNode
p3631
(dp3632
g33
Vtd
p3633
sg35
(lp3634
sg37
g3586
sg46
I01
sg64
V575
p3635
sg62
V
sg75
V.
sg2187
I22
sg47
I00
sg48
(lp3636
g75
ag64
ag62
asg50
V306
p3637
sbasg132
g3614
sg37
Nsg239
g3597
sg240
g3609
sg46
I01
sg241
g3603
sg242
V/home/mark/m3/doc/Traffic.i3
p3638
sg2187
I1
sg244
g3631
sg245
g3623
sg47
I01
sg48
(lp3639
g242
asg247
g2831
sg50
V1
sg179
(iLUT
LUT
p3640
(dp3641
g182
g3586
sg183
Nsg184
(dp3642
sbsbsg46
I01
sg2187
I3
sg47
I01
sg48
(lp3643
sg50
V6
sbsg252
g2507
sg46
I01
sg253
g2823
sg47
I00
sg48
(lp3644
sg50
V7
sg2187
I3
sbsg46
I01
sg2187
I4
sg47
I00
sg48
(lp3645
sg50
V9
sbsg46
I01
sg256
g2231
sg257
g2492
sg2187
I6
sg47
I00
sg48
(lp3646
sg259
g2500
sg50
V54
p3647
sbsS'tagField'
p3648
g2180
sg262
I01
sg48
(lp3649
sg265
g266
sg50
V57
p3650
sg35
(lp3651
g2445
ag2234
ag2180
ag2437
a(iRuleNodes
VCaseEltListNode
p3652
(dp3653
g33
VcaseElts
p3654
sg35
(lp3655
(iRuleNodes
SepNode
p3656
(dp3657
g33
Vanon
p3658
sg35
(lp3659
sg37
g3652
sg46
I01
sg64
V170
p3660
sg62
V%0A    
p3661
sg75
V|
sg2187
I8
sg47
I00
sg48
(lp3662
g75
ag64
ag62
asg50
V71
p3663
sba(iRuleNodes
VCaseNode
p3664
(dp3665
g33
Vanon
p3666
sg2004
(iRuleNodes
KeyWordNode
p3667
(dp3668
g33
Vkwa
p3669
sg35
(lp3670
sg37
g3664
sg46
I01
sg64
V182
p3671
sg62
V 
sg75
V=>
p3672
sg2187
I8
sg47
I00
sg48
(lp3673
g75
ag64
ag62
asg50
V82
p3674
sbsg35
(lp3675
(iRuleNodes
LabelsListNode
p3676
(dp3677
g33
VlabelList
p3678
sg35
(lp3679
(iRuleNodes
LabelsNode
p3680
(dp3681
g33
Vanon
p3682
sg35
(lp3683
(iRuleNodes
ConstExprNode
p3684
(dp3685
g33
Vanon
p3686
sg35
(lp3687
(iRuleNodes
ExprNode
p3688
(dp3689
g33
Vexpr
p3690
sg35
(lp3691
(iRuleNodes
TypeNameNode
p3692
(dp3693
g33
Vexpr
p3694
sg81
(iRuleNodes
QualIdNode
p3695
(dp3696
g33
VqualId
p3697
sg35
(lp3698
(iRuleNodes
IdNode
p3699
(dp3700
g33
Vanon
p3701
sg35
(lp3702
sg37
g3695
sg46
I01
sg61
Vvk
p3703
sg62
V  
p3704
sg64
V173
p3705
sg2187
I8
sg47
I00
sg48
(lp3706
g61
ag64
ag62
asg50
V79
p3707
sba(iRuleNodes
SepNode
p3708
(dp3709
g33
Vanon
p3710
sg35
(lp3711
sg37
g3695
sg46
I01
sg64
V175
p3712
sg62
V
sg75
V.
sg2187
I8
sg47
I00
sg48
(lp3713
g75
ag64
ag62
asg50
V80
p3714
sba(iRuleNodes
IdNode
p3715
(dp3716
g33
Vanon
p3717
sg35
(lp3718
sg37
g3695
sg46
I01
sg61
Vtruck
p3719
sg62
V
sg64
V176
p3720
sg2187
I8
sg47
I00
sg48
(lp3721
g61
ag64
ag62
asg50
V81
p3722
sbasg37
g3692
sg46
I01
sg2187
I8
sg47
I00
sg48
(lp3723
sg50
V78
p3724
sbsg35
(lp3725
g3695
asg37
g3688
sg46
I01
sg2187
I8
sg47
I00
sg48
(lp3726
sg50
V77
p3727
sbasg2345
g2147
sg37
g3684
sg2346
g3692
sg46
I01
sg2347
g2147
sg2187
I8
sg47
I00
sg48
(lp3728
sg50
V76
p3729
sbasg37
g3680
sg2346
g3688
sg46
I01
sg2187
I8
sg47
I00
sg48
(lp3730
sg50
V75
p3731
sbasg37
g3676
sg46
I01
sg2187
I8
sg47
I00
sg48
(lp3732
sg50
V74
p3733
sbasg37
g3664
sg46
I01
sg2187
I8
sg47
I00
sg48
(lp3734
sg50
V73
p3735
sbag3667
a(iRuleNodes
FieldListNode
p3736
(dp3737
g33
Vfields
p3738
sg35
(lp3739
(iRuleNodes
FieldNode
p3740
(dp3741
g33
Vanon
p3742
sg41
(iRuleNodes
TokNode
p3743
(dp3744
g33
Vass
p3745
sg35
(lp3746
sg37
g3740
sg46
I01
sg64
V211
p3747
sg62
V 
sg75
V:=
p3748
sg2187
I9
sg47
I00
sg48
(lp3749
g75
ag64
ag62
asg50
V106
p3750
sbsg35
(lp3751
(iRuleNodes
IdListNode
p3752
(dp3753
g33
Vidlist
p3754
sg35
(lp3755
(iRuleNodes
IdNode
p3756
(dp3757
g33
Vanon
p3758
sg35
(lp3759
sg37
g3752
sg46
I01
sg61
Vaxels
p3760
sg62
V %0A         
p3761
sg64
V195
p3762
sg2187
I9
sg47
I00
sg48
(lp3763
g61
ag64
ag62
asg50
V86
p3764
sbasg37
g3740
sg46
I01
sg2187
I9
sg47
I00
sg48
(lp3765
sg50
V85
p3766
sba(iRuleNodes
TokNode
p3767
(dp3768
g33
Vcol
p3769
sg35
(lp3770
sg37
g3740
sg46
I01
sg64
V201
p3771
sg62
V 
sg75
V:
sg2187
I9
sg47
I00
sg48
(lp3772
g75
ag64
ag62
asg50
V87
p3773
sba(iRuleNodes
SubrangeNode
p3774
(dp3775
g33
Vtipe
p3776
sg35
(lp3777
(iRuleNodes
TokNode
p3778
(dp3779
g33
Vlsq
p3780
sg35
(lp3781
sg37
g3774
sg46
I01
sg64
V203
p3782
sg62
V 
sg75
V[
sg2187
I9
sg47
I00
sg48
(lp3783
g75
ag64
ag62
asg50
V89
p3784
sba(iRuleNodes
ConstExprNode
p3785
(dp3786
g33
Vconst1
p3787
sg35
(lp3788
(iRuleNodes
ExprNode
p3789
(dp3790
g33
Vexpr
p3791
sg35
(lp3792
(iRuleNodes
NumberNode
p3793
(dp3794
g33
Vexpr
p3795
sg2311
I1
sg35
(lp3796
(iRuleNodes
IntNode
p3797
(dp3798
g33
VintVal
p3799
sg35
(lp3800
sg37
g3793
sg47
I00
sg46
I01
sg62
V
sg64
V204
p3801
sg2187
I9
sg2318
V2
sg48
(lp3802
g2318
ag64
ag62
asg50
V93
p3803
sba(iRuleNodes
NullNode
p3804
(dp3805
g33
Vtd
p3806
sg35
(lp3807
sg37
g3793
sg46
I01
sg2187
I9
sg47
I00
sg48
(lp3808
sg50
V94
p3809
sba(iRuleNodes
NullNode
p3810
(dp3811
g33
VnumberRest
p3812
sg35
(lp3813
sg37
g3793
sg46
I01
sg2187
I9
sg47
I00
sg48
(lp3814
sg50
V95
p3815
sba(iRuleNodes
NullNode
p3816
(dp3817
g33
Vscaling
p3818
sg35
(lp3819
sg37
g3793
sg46
I01
sg2187
I9
sg47
I00
sg48
(lp3820
sg50
V96
p3821
sbasg37
g3789
sg2340
g3797
sg46
I01
sg2341
g3810
sg295
g3816
sg2187
I9
sg47
I00
sg48
(lp3822
sg244
g3804
sg50
V92
p3823
sg2344
Nsbasg2345
g278
sg37
g3785
sg2346
g3793
sg46
I01
sg2347
g278
sg2187
I9
sg47
I00
sg48
(lp3824
sg50
V91
p3825
sbasg2345
g278
sg37
g3774
sg2346
g3789
sg46
I01
sg2187
I9
sg47
I00
sg48
(lp3826
sg50
V90
p3827
sba(iRuleNodes
SepNode
p3828
(dp3829
g33
Vtdd
p3830
sg35
(lp3831
sg37
g3774
sg46
I01
sg64
V205
p3832
sg62
V
sg75
V..
p3833
sg2187
I9
sg47
I00
sg48
(lp3834
g75
ag64
ag62
asg50
V97
p3835
sba(iRuleNodes
ConstExprNode
p3836
(dp3837
g33
Vconst2
p3838
sg35
(lp3839
(iRuleNodes
ExprNode
p3840
(dp3841
g33
Vexpr
p3842
sg35
(lp3843
(iRuleNodes
NumberNode
p3844
(dp3845
g33
Vexpr
p3846
sg2311
I1
sg35
(lp3847
(iRuleNodes
IntNode
p3848
(dp3849
g33
VintVal
p3850
sg35
(lp3851
sg37
g3844
sg47
I00
sg46
I01
sg62
V
sg64
V207
p3852
sg2187
I9
sg2318
V10
p3853
sg48
(lp3854
g2318
ag64
ag62
asg50
V101
p3855
sba(iRuleNodes
NullNode
p3856
(dp3857
g33
Vtd
p3858
sg35
(lp3859
sg37
g3844
sg46
I01
sg2187
I9
sg47
I00
sg48
(lp3860
sg50
V102
p3861
sba(iRuleNodes
NullNode
p3862
(dp3863
g33
VnumberRest
p3864
sg35
(lp3865
sg37
g3844
sg46
I01
sg2187
I9
sg47
I00
sg48
(lp3866
sg50
V103
p3867
sba(iRuleNodes
NullNode
p3868
(dp3869
g33
Vscaling
p3870
sg35
(lp3871
sg37
g3844
sg46
I01
sg2187
I9
sg47
I00
sg48
(lp3872
sg50
V104
p3873
sbasg37
g3840
sg2340
g3848
sg46
I01
sg2341
g3862
sg295
g3868
sg2187
I9
sg47
I00
sg48
(lp3874
sg244
g3856
sg50
V100
p3875
sg2344
Nsbasg2345
g278
sg37
g3836
sg2346
g3844
sg46
I01
sg2347
g278
sg2187
I9
sg47
I00
sg48
(lp3876
sg50
V99
p3877
sbasg2345
g278
sg37
g3774
sg2346
g3840
sg46
I01
sg2187
I9
sg47
I00
sg48
(lp3878
sg50
V98
p3879
sba(iRuleNodes
TokNode
p3880
(dp3881
g33
Vrsq
p3882
sg35
(lp3883
sg37
g3774
sg46
I01
sg64
V209
p3884
sg62
V
sg75
V]
sg2187
I9
sg47
I00
sg48
(lp3885
g75
ag64
ag62
asg50
V105
p3886
sbasg37
g3740
sg2411
g3880
sg47
I00
sg46
I01
sg2412
g3836
sg2413
g3828
sg262
I01
sg2414
g3785
sg2187
I9
sg2415
g3778
sg48
(lp3887
sg268
(iM3Types
M3IntegerType
p3888
(dp3889
g17
I00
sg18
I00
sg19
I00
sg20
I00
sg21
I00
sg22
I00
sg23
I01
sg24
I01
sg280
I544
sg281
I00
sg282
I00
sg283
I00
sg284
I00
sg285
I00
sg286
I00
sg287
I2
sg288
I00
sg289
I00
sg290
I00
sg291
I00
sg292
I00
sg293
I00
sg294
I00
sg295
Nsg296
I01
sg297
I00
sg298
I00
sg299
I10
sg301
I00
sg302
I00
sg303
I00
sg304
I00
sg305
I2
sg306
I00
sg307
I01
sbsg50
V88
p3890
sbag3743
a(iRuleNodes
ConstExprNode
p3891
(dp3892
g33
VconstExpr
p3893
sg35
(lp3894
(iRuleNodes
ExprNode
p3895
(dp3896
g33
Vexpr
p3897
sg35
(lp3898
(iRuleNodes
NumberNode
p3899
(dp3900
g33
Vexpr
p3901
sg2311
I1
sg35
(lp3902
(iRuleNodes
IntNode
p3903
(dp3904
g33
VintVal
p3905
sg35
(lp3906
sg37
g3899
sg47
I00
sg46
I01
sg62
V 
sg64
V214
p3907
sg2187
I9
sg2318
V2
sg48
(lp3908
g2318
ag64
ag62
asg50
V110
p3909
sba(iRuleNodes
NullNode
p3910
(dp3911
g33
Vtd
p3912
sg35
(lp3913
sg37
g3899
sg46
I01
sg2187
I9
sg47
I00
sg48
(lp3914
sg50
V111
p3915
sba(iRuleNodes
NullNode
p3916
(dp3917
g33
VnumberRest
p3918
sg35
(lp3919
sg37
g3899
sg46
I01
sg2187
I9
sg47
I00
sg48
(lp3920
sg50
V112
p3921
sba(iRuleNodes
NullNode
p3922
(dp3923
g33
Vscaling
p3924
sg35
(lp3925
sg37
g3899
sg46
I01
sg2187
I9
sg47
I00
sg48
(lp3926
sg50
V113
p3927
sbasg37
g3895
sg2340
g3903
sg46
I01
sg2341
g3916
sg295
g3922
sg2187
I9
sg47
I00
sg48
(lp3928
sg244
g3910
sg50
V109
p3929
sg2344
Nsbasg2345
g278
sg37
g3891
sg2346
g3899
sg46
I01
sg2347
g278
sg2187
I9
sg47
I00
sg48
(lp3930
sg50
V108
p3931
sbasg37
g3740
sg2346
g3895
sg46
I01
sg2187
I9
sg47
I00
sg48
(lp3932
sg50
V107
p3933
sbasg99
g3752
sg37
g3736
sg46
I01
sg256
g3774
sg272
g3767
sg273
g3891
sg2187
I9
sg47
I00
sg48
(lp3934
sg50
V84
p3935
sba(iRuleNodes
SepNode
p3936
(dp3937
g33
Vanon
p3938
sg35
(lp3939
sg37
g3736
sg46
I01
sg64
V216
p3940
sg62
V 
sg75
V;
sg2187
I9
sg47
I00
sg48
(lp3941
g75
ag64
ag62
asg50
V114
p3942
sba(iRuleNodes
FieldNode
p3943
(dp3944
g33
Vanon
p3945
sg41
(iRuleNodes
NullNode
p3946
(dp3947
g33
Vass
p3948
sg35
(lp3949
sg37
g3943
sg46
I01
sg2187
I10
sg47
I00
sg48
(lp3950
sg50
V122
p3951
sbsg35
(lp3952
(iRuleNodes
IdListNode
p3953
(dp3954
g33
Vidlist
p3955
sg35
(lp3956
(iRuleNodes
IdNode
p3957
(dp3958
g33
Vanon
p3959
sg35
(lp3960
sg37
g3953
sg46
I01
sg61
Vweight
p3961
sg62
V%0A         
p3962
sg64
V227
p3963
sg2187
I10
sg47
I00
sg48
(lp3964
g61
ag64
ag62
asg50
V117
p3965
sbasg37
g3943
sg46
I01
sg2187
I10
sg47
I00
sg48
(lp3966
sg50
V116
p3967
sba(iRuleNodes
TokNode
p3968
(dp3969
g33
Vcol
p3970
sg35
(lp3971
sg37
g3943
sg46
I01
sg64
V234
p3972
sg62
V 
sg75
V:
sg2187
I10
sg47
I00
sg48
(lp3973
g75
ag64
ag62
asg50
V118
p3974
sba(iRuleNodes
TypeNameNode
p3975
(dp3976
g33
Vtipe
p3977
sg81
(iRuleNodes
QualIdNode
p3978
(dp3979
g33
VqualId
p3980
sg35
(lp3981
(iRuleNodes
IdNode
p3982
(dp3983
g33
Vanon
p3984
sg35
(lp3985
sg37
g3978
sg46
I01
sg61
VMetricWeight
p3986
sg62
V 
sg64
V236
p3987
sg2187
I10
sg47
I00
sg48
(lp3988
g61
ag64
ag62
asg50
V121
p3989
sbasg37
g3975
sg46
I01
sg2187
I10
sg47
I00
sg48
(lp3990
sg50
V120
p3991
sbsg35
(lp3992
g3978
asg37
g3943
sg46
I01
sg2187
I10
sg47
I00
sg48
(lp3993
sg50
V119
p3994
sbag3946
a(iRuleNodes
NullNode
p3995
(dp3996
g33
VconstExpr
p3997
sg35
(lp3998
sg37
g3943
sg46
I01
sg2187
I10
sg47
I00
sg48
(lp3999
sg50
V123
p4000
sbasg99
g3953
sg37
g3736
sg46
I01
sg256
g3975
sg272
g3968
sg273
g3995
sg2187
I10
sg47
I00
sg48
(lp4001
sg50
V115
p4002
sba(iRuleNodes
SepNode
p4003
(dp4004
g33
Vanon
p4005
sg35
(lp4006
sg37
g3736
sg46
I01
sg64
V249
p4007
sg62
V 
sg75
V;
sg2187
I10
sg47
I00
sg48
(lp4008
g75
ag64
ag62
asg50
V124
p4009
sbasg37
g3664
sg46
I01
sg2187
I9
sg47
I00
sg48
(lp4010
sg50
V83
p4011
sbasg37
g3652
sg47
I00
sg261
g3736
sg46
I01
sg2187
I8
sS'labelList'
p4012
g3676
sg48
(lp4013
sg50
V72
p4014
sba(iRuleNodes
SepNode
p4015
(dp4016
g33
Vanon
p4017
sg35
(lp4018
sg37
g3652
sg46
I01
sg64
V255
p4019
sg62
V%0A    
p4020
sg75
V|
sg2187
I11
sg47
I00
sg48
(lp4021
g75
ag64
ag62
asg50
V125
p4022
sba(iRuleNodes
VCaseNode
p4023
(dp4024
g33
Vanon
p4025
sg2004
(iRuleNodes
KeyWordNode
p4026
(dp4027
g33
Vkwa
p4028
sg35
(lp4029
sg37
g4023
sg46
I01
sg64
V265
p4030
sg62
V 
sg75
V=>
p4031
sg2187
I11
sg47
I00
sg48
(lp4032
g75
ag64
ag62
asg50
V136
p4033
sbsg35
(lp4034
(iRuleNodes
LabelsListNode
p4035
(dp4036
g33
VlabelList
p4037
sg35
(lp4038
(iRuleNodes
LabelsNode
p4039
(dp4040
g33
Vanon
p4041
sg35
(lp4042
(iRuleNodes
ConstExprNode
p4043
(dp4044
g33
Vanon
p4045
sg35
(lp4046
(iRuleNodes
ExprNode
p4047
(dp4048
g33
Vexpr
p4049
sg35
(lp4050
(iRuleNodes
TypeNameNode
p4051
(dp4052
g33
Vexpr
p4053
sg81
(iRuleNodes
QualIdNode
p4054
(dp4055
g33
VqualId
p4056
sg35
(lp4057
(iRuleNodes
IdNode
p4058
(dp4059
g33
Vanon
p4060
sg35
(lp4061
sg37
g4054
sg46
I01
sg61
Vvk
p4062
sg62
V  
p4063
sg64
V258
p4064
sg2187
I11
sg47
I00
sg48
(lp4065
g61
ag64
ag62
asg50
V133
p4066
sba(iRuleNodes
SepNode
p4067
(dp4068
g33
Vanon
p4069
sg35
(lp4070
sg37
g4054
sg46
I01
sg64
V260
p4071
sg62
V
sg75
V.
sg2187
I11
sg47
I00
sg48
(lp4072
g75
ag64
ag62
asg50
V134
p4073
sba(iRuleNodes
IdNode
p4074
(dp4075
g33
Vanon
p4076
sg35
(lp4077
sg37
g4054
sg46
I01
sg61
Vcar
p4078
sg62
V
sg64
V261
p4079
sg2187
I11
sg47
I00
sg48
(lp4080
g61
ag64
ag62
asg50
V135
p4081
sbasg37
g4051
sg46
I01
sg2187
I11
sg47
I00
sg48
(lp4082
sg50
V132
p4083
sbsg35
(lp4084
g4054
asg37
g4047
sg46
I01
sg2187
I11
sg47
I00
sg48
(lp4085
sg50
V131
p4086
sbasg2345
g2147
sg37
g4043
sg2346
g4051
sg46
I01
sg2347
g2147
sg2187
I11
sg47
I00
sg48
(lp4087
sg50
V130
p4088
sbasg37
g4039
sg2346
g4047
sg46
I01
sg2187
I11
sg47
I00
sg48
(lp4089
sg50
V129
p4090
sbasg37
g4035
sg46
I01
sg2187
I11
sg47
I00
sg48
(lp4091
sg50
V128
p4092
sbasg37
g4023
sg46
I01
sg2187
I11
sg47
I00
sg48
(lp4093
sg50
V127
p4094
sbag4026
a(iRuleNodes
FieldListNode
p4095
(dp4096
g33
Vfields
p4097
sg35
(lp4098
(iRuleNodes
FieldNode
p4099
(dp4100
g33
Vanon
p4101
sg41
(iRuleNodes
NullNode
p4102
(dp4103
g33
Vass
p4104
sg35
(lp4105
sg37
g4099
sg46
I01
sg2187
I12
sg47
I00
sg48
(lp4106
sg50
V160
p4107
sbsg35
(lp4108
(iRuleNodes
IdListNode
p4109
(dp4110
g33
Vidlist
p4111
sg35
(lp4112
(iRuleNodes
IdNode
p4113
(dp4114
g33
Vanon
p4115
sg35
(lp4116
sg37
g4109
sg46
I01
sg61
Vdoors
p4117
sg62
V %0A         
p4118
sg64
V278
p4119
sg2187
I12
sg47
I00
sg48
(lp4120
g61
ag64
ag62
asg50
V140
p4121
sbasg37
g4099
sg46
I01
sg2187
I12
sg47
I00
sg48
(lp4122
sg50
V139
p4123
sba(iRuleNodes
TokNode
p4124
(dp4125
g33
Vcol
p4126
sg35
(lp4127
sg37
g4099
sg46
I01
sg64
V284
p4128
sg62
V 
sg75
V:
sg2187
I12
sg47
I00
sg48
(lp4129
g75
ag64
ag62
asg50
V141
p4130
sba(iRuleNodes
SubrangeNode
p4131
(dp4132
g33
Vtipe
p4133
sg35
(lp4134
(iRuleNodes
TokNode
p4135
(dp4136
g33
Vlsq
p4137
sg35
(lp4138
sg37
g4131
sg46
I01
sg64
V286
p4139
sg62
V 
sg75
V[
sg2187
I12
sg47
I00
sg48
(lp4140
g75
ag64
ag62
asg50
V143
p4141
sba(iRuleNodes
ConstExprNode
p4142
(dp4143
g33
Vconst1
p4144
sg35
(lp4145
(iRuleNodes
ExprNode
p4146
(dp4147
g33
Vexpr
p4148
sg35
(lp4149
(iRuleNodes
NumberNode
p4150
(dp4151
g33
Vexpr
p4152
sg2311
I1
sg35
(lp4153
(iRuleNodes
IntNode
p4154
(dp4155
g33
VintVal
p4156
sg35
(lp4157
sg37
g4150
sg47
I00
sg46
I01
sg62
V
sg64
V287
p4158
sg2187
I12
sg2318
V2
sg48
(lp4159
g2318
ag64
ag62
asg50
V147
p4160
sba(iRuleNodes
NullNode
p4161
(dp4162
g33
Vtd
p4163
sg35
(lp4164
sg37
g4150
sg46
I01
sg2187
I12
sg47
I00
sg48
(lp4165
sg50
V148
p4166
sba(iRuleNodes
NullNode
p4167
(dp4168
g33
VnumberRest
p4169
sg35
(lp4170
sg37
g4150
sg46
I01
sg2187
I12
sg47
I00
sg48
(lp4171
sg50
V149
p4172
sba(iRuleNodes
NullNode
p4173
(dp4174
g33
Vscaling
p4175
sg35
(lp4176
sg37
g4150
sg46
I01
sg2187
I12
sg47
I00
sg48
(lp4177
sg50
V150
p4178
sbasg37
g4146
sg2340
g4154
sg46
I01
sg2341
g4167
sg295
g4173
sg2187
I12
sg47
I00
sg48
(lp4179
sg244
g4161
sg50
V146
p4180
sg2344
Nsbasg2345
g278
sg37
g4142
sg2346
g4150
sg46
I01
sg2347
g278
sg2187
I12
sg47
I00
sg48
(lp4181
sg50
V145
p4182
sbasg2345
g278
sg37
g4131
sg2346
g4146
sg46
I01
sg2187
I12
sg47
I00
sg48
(lp4183
sg50
V144
p4184
sba(iRuleNodes
SepNode
p4185
(dp4186
g33
Vtdd
p4187
sg35
(lp4188
sg37
g4131
sg46
I01
sg64
V288
p4189
sg62
V
sg75
V..
p4190
sg2187
I12
sg47
I00
sg48
(lp4191
g75
ag64
ag62
asg50
V151
p4192
sba(iRuleNodes
ConstExprNode
p4193
(dp4194
g33
Vconst2
p4195
sg35
(lp4196
(iRuleNodes
ExprNode
p4197
(dp4198
g33
Vexpr
p4199
sg35
(lp4200
(iRuleNodes
NumberNode
p4201
(dp4202
g33
Vexpr
p4203
sg2311
I1
sg35
(lp4204
(iRuleNodes
IntNode
p4205
(dp4206
g33
VintVal
p4207
sg35
(lp4208
sg37
g4201
sg47
I00
sg46
I01
sg62
V
sg64
V290
p4209
sg2187
I12
sg2318
V5
sg48
(lp4210
g2318
ag64
ag62
asg50
V155
p4211
sba(iRuleNodes
NullNode
p4212
(dp4213
g33
Vtd
p4214
sg35
(lp4215
sg37
g4201
sg46
I01
sg2187
I12
sg47
I00
sg48
(lp4216
sg50
V156
p4217
sba(iRuleNodes
NullNode
p4218
(dp4219
g33
VnumberRest
p4220
sg35
(lp4221
sg37
g4201
sg46
I01
sg2187
I12
sg47
I00
sg48
(lp4222
sg50
V157
p4223
sba(iRuleNodes
NullNode
p4224
(dp4225
g33
Vscaling
p4226
sg35
(lp4227
sg37
g4201
sg46
I01
sg2187
I12
sg47
I00
sg48
(lp4228
sg50
V158
p4229
sbasg37
g4197
sg2340
g4205
sg46
I01
sg2341
g4218
sg295
g4224
sg2187
I12
sg47
I00
sg48
(lp4230
sg244
g4212
sg50
V154
p4231
sg2344
Nsbasg2345
g278
sg37
g4193
sg2346
g4201
sg46
I01
sg2347
g278
sg2187
I12
sg47
I00
sg48
(lp4232
sg50
V153
p4233
sbasg2345
g278
sg37
g4131
sg2346
g4197
sg46
I01
sg2187
I12
sg47
I00
sg48
(lp4234
sg50
V152
p4235
sba(iRuleNodes
TokNode
p4236
(dp4237
g33
Vrsq
p4238
sg35
(lp4239
sg37
g4131
sg46
I01
sg64
V291
p4240
sg62
V
sg75
V]
sg2187
I12
sg47
I00
sg48
(lp4241
g75
ag64
ag62
asg50
V159
p4242
sbasg37
g4099
sg2411
g4236
sg47
I00
sg46
I01
sg2412
g4193
sg2413
g4185
sg262
I01
sg2414
g4142
sg2187
I12
sg2415
g4135
sg48
(lp4243
sg268
(iM3Types
M3IntegerType
p4244
(dp4245
g17
I00
sg18
I00
sg19
I00
sg20
I00
sg21
I00
sg22
I00
sg23
I01
sg24
I01
sg280
I545
sg281
I00
sg282
I00
sg283
I00
sg284
I00
sg285
I00
sg286
I00
sg287
I2
sg288
I00
sg289
I00
sg290
I00
sg291
I00
sg292
I00
sg293
I00
sg294
I00
sg295
Nsg296
I01
sg297
I00
sg298
I00
sg299
I5
sg301
I00
sg302
I00
sg303
I00
sg304
I00
sg305
I2
sg306
I00
sg307
I01
sbsg50
V142
p4246
sbag4102
a(iRuleNodes
NullNode
p4247
(dp4248
g33
VconstExpr
p4249
sg35
(lp4250
sg37
g4099
sg46
I01
sg2187
I12
sg47
I00
sg48
(lp4251
sg50
V161
p4252
sbasg99
g4109
sg37
g4095
sg46
I01
sg256
g4131
sg272
g4124
sg273
g4247
sg2187
I12
sg47
I00
sg48
(lp4253
sg50
V138
p4254
sba(iRuleNodes
SepNode
p4255
(dp4256
g33
Vanon
p4257
sg35
(lp4258
sg37
g4095
sg46
I01
sg64
V293
p4259
sg62
V 
sg75
V;
sg2187
I12
sg47
I00
sg48
(lp4260
g75
ag64
ag62
asg50
V162
p4261
sbasg37
g4023
sg46
I01
sg2187
I12
sg47
I00
sg48
(lp4262
sg50
V137
p4263
sbasg37
g3652
sg47
I00
sg261
g4095
sg46
I01
sg2187
I11
sg4012
g4035
sg48
(lp4264
sg50
V126
p4265
sbasg37
g2231
sg46
I01
sg2187
I8
sg47
I00
sg48
(lp4266
sg50
V70
p4267
sbag2472
ag2482
ag2455
ag2464
ag2253
ag2243
asg7
I30
sS'caseElts'
p4268
g3652
sg264
I01
sg47
I00
sbsg46
I01
sg256
g2211
sg272
g2204
sg273
g2176
sg2187
I7
sg47
I00
sg48
(lp4269
sg50
V60
p4270
sbsg46
I01
sg2187
I7
sg47
I00
sg48
(lp4271
sg50
V68
p4272
sbsg256
g2147
sg5
g2173
sbsg2275
(iM3Types
Field
p4273
(dp4274
g8
Nsg30
g2420
sg256
g2417
sg5
g2275
sbsg3961
(iM3Types
Field
p4275
(dp4276
g8
Nsg30
g3995
sg256
g2158
sg5
g3961
sbsg3760
(iM3Types
Field
p4277
(dp4278
g8
(iM3Objects
M3Integer
p4279
(dp4280
S'val'
p4281
I2
sS'isChoice'
p4282
I00
sg256
g278
sS'statisticsName'
p4283
S'M3Integer'
p4284
sS'statisticsCtrs'
p4285
(dp4286
sS'owner'
p4287
I00
sS'hasPattern'
p4288
I00
sbsg30
g3891
sg256
g3888
sg5
g3760
sbsg4117
(iM3Types
Field
p4289
(dp4290
g8
Nsg30
g4247
sg256
g4244
sg5
g4117
sbssg280
I543
sg281
I00
sS'caselist'
p4291
(lp4292
((lp4293
I1
a(lp4294
g3760
ag3961
atp4295
a((lp4296
I0
a(lp4297
g4117
atp4298
asg282
I00
sg283
I00
sg284
I00
sg285
I00
sg286
I00
sg288
I00
sg289
I00
sg290
I00
sg291
I00
sg292
I00
sg308
VTraffic__vehicle
p4299
sg293
I00
sg294
I00
sg296
I00
sS'checked'
p4300
I01
sg297
I00
sS'elselist'
p4301
(lp4302
sg298
I00
sg301
I00
sg302
I00
sS'staticlist'
p4303
(lp4304
g2275
asg303
I00
sS'casectr'
p4305
I0
sS'tagname'
p4306
g2173
sg304
I00
sg306
I00
sg307
I00
sbsg313
I00
sg314
Nsbs.